; ModuleID = 'simpleprog.cu'
source_filename = "simpleprog.cu"
target datalayout = "e-m:o-i64:64-f80:128-n8:16:32:64-S128"
target triple = "x86_64-apple-macosx10.12.0"

; Function Attrs: noinline nounwind ssp uwtable
define i32 @_Z5crashii(i32, i32) #0 !dbg !1242 {
  %3 = alloca i32, align 4
  %4 = alloca i32, align 4
  store i32 %0, i32* %3, align 4
  call void @llvm.dbg.declare(metadata i32* %3, metadata !1245, metadata !1246), !dbg !1247
  store i32 %1, i32* %4, align 4
  call void @llvm.dbg.declare(metadata i32* %4, metadata !1248, metadata !1246), !dbg !1249
  %5 = load i32, i32* %3, align 4, !dbg !1250
  %6 = load i32, i32* %4, align 4, !dbg !1251
  %7 = sdiv i32 %5, %6, !dbg !1252
  ret i32 %7, !dbg !1253
}

; Function Attrs: nounwind readnone
declare void @llvm.dbg.declare(metadata, metadata, metadata) #1

; Function Attrs: noinline norecurse nounwind ssp uwtable
define i32 @main(i32, i8**) #2 !dbg !1254 {
  %3 = alloca i32, align 4
  %4 = alloca i8**, align 8
  store i32 %0, i32* %3, align 4
  call void @llvm.dbg.declare(metadata i32* %3, metadata !1257, metadata !1246), !dbg !1258
  store i8** %1, i8*** %4, align 8
  call void @llvm.dbg.declare(metadata i8*** %4, metadata !1259, metadata !1246), !dbg !1260
  %5 = call i32 @_Z5crashii(i32 5, i32 0), !dbg !1261
  ret i32 0, !dbg !1262
}

attributes #0 = { noinline nounwind ssp uwtable "correctly-rounded-divide-sqrt-fp-math"="false" "disable-tail-calls"="false" "less-precise-fpmad"="false" "no-frame-pointer-elim"="true" "no-frame-pointer-elim-non-leaf" "no-infs-fp-math"="false" "no-jump-tables"="false" "no-nans-fp-math"="false" "no-signed-zeros-fp-math"="false" "no-trapping-math"="false" "stack-protector-buffer-size"="8" "target-cpu"="penryn" "target-features"="+cx16,+fxsr,+mmx,+sse,+sse2,+sse3,+sse4.1,+ssse3,+x87" "unsafe-fp-math"="false" "use-soft-float"="false" }
attributes #1 = { nounwind readnone }
attributes #2 = { noinline norecurse nounwind ssp uwtable "correctly-rounded-divide-sqrt-fp-math"="false" "disable-tail-calls"="false" "less-precise-fpmad"="false" "no-frame-pointer-elim"="true" "no-frame-pointer-elim-non-leaf" "no-infs-fp-math"="false" "no-jump-tables"="false" "no-nans-fp-math"="false" "no-signed-zeros-fp-math"="false" "no-trapping-math"="false" "stack-protector-buffer-size"="8" "target-cpu"="penryn" "target-features"="+cx16,+fxsr,+mmx,+sse,+sse2,+sse3,+sse4.1,+ssse3,+x87" "unsafe-fp-math"="false" "use-soft-float"="false" }

!llvm.dbg.cu = !{!0}
!llvm.module.flags = !{!1238, !1239, !1240}
!llvm.ident = !{!1241}

!0 = distinct !DICompileUnit(language: DW_LANG_C_plus_plus, file: !1, producer: "clang version 4.0.0 (tags/RELEASE_400/final)", isOptimized: false, runtimeVersion: 0, emissionKind: FullDebug, enums: !2, imports: !3)
!1 = !DIFile(filename: "simpleprog.cu", directory: "/Users/hugh2/git-local/pub-prototyping/llvm/try_debug")
!2 = !{}
!3 = !{!4, !11, !14, !18, !19, !27, !33, !40, !48, !52, !56, !60, !66, !71, !75, !79, !83, !87, !92, !96, !101, !106, !110, !114, !118, !122, !127, !131, !133, !137, !139, !148, !152, !157, !161, !163, !167, !171, !173, !177, !183, !187, !191, !197, !200, !202, !207, !211, !213, !215, !219, !221, !223, !225, !227, !229, !231, !233, !238, !242, !244, !246, !251, !256, !258, !260, !262, !264, !266, !268, !270, !272, !274, !276, !278, !280, !282, !284, !286, !288, !292, !294, !296, !298, !302, !304, !308, !310, !312, !314, !316, !320, !322, !324, !328, !330, !332, !336, !338, !342, !344, !346, !350, !352, !354, !356, !358, !360, !362, !366, !368, !370, !372, !374, !376, !378, !380, !384, !388, !390, !392, !394, !396, !398, !400, !402, !404, !406, !408, !410, !412, !414, !416, !418, !420, !422, !424, !426, !430, !432, !434, !436, !440, !442, !446, !448, !450, !452, !454, !458, !460, !464, !466, !468, !470, !472, !476, !478, !480, !484, !486, !488, !490, !494, !498, !501, !504, !508, !512, !515, !518, !521, !523, !525, !527, !529, !531, !533, !535, !537, !539, !541, !543, !545, !547, !549, !551, !556, !559, !562, !565, !566, !571, !573, !577, !581, !583, !585, !589, !593, !597, !599, !603, !608, !612, !616, !618, !620, !622, !624, !626, !628, !632, !636, !690, !691, !692, !697, !699, !703, !707, !711, !713, !717, !721, !725, !736, !738, !742, !746, !750, !752, !756, !760, !764, !766, !768, !770, !774, !778, !783, !787, !793, !797, !801, !803, !805, !807, !811, !815, !819, !821, !823, !827, !831, !833, !835, !839, !843, !845, !849, !851, !853, !856, !858, !860, !862, !864, !866, !868, !870, !872, !874, !876, !878, !880, !882, !886, !891, !896, !901, !903, !906, !908, !910, !912, !914, !916, !918, !920, !922, !924, !928, !932, !936, !938, !942, !946, !958, !959, !974, !975, !976, !981, !983, !987, !991, !995, !999, !1001, !1005, !1009, !1013, !1017, !1021, !1025, !1027, !1029, !1033, !1038, !1042, !1046, !1050, !1054, !1058, !1062, !1066, !1070, !1072, !1074, !1078, !1080, !1084, !1088, !1093, !1095, !1097, !1099, !1103, !1107, !1111, !1113, !1117, !1119, !1121, !1123, !1125, !1131, !1135, !1137, !1143, !1148, !1152, !1156, !1161, !1166, !1170, !1174, !1178, !1182, !1184, !1186, !1190, !1191, !1195, !1196, !1200, !1204, !1209, !1214, !1218, !1224, !1228, !1230, !1234}
!4 = !DIImportedEntity(tag: DW_TAG_imported_declaration, scope: !5, entity: !8, line: 48)
!5 = !DINamespace(name: "__1", scope: !7, file: !6, line: 393, exportSymbols: true)
!6 = !DIFile(filename: "/usr/local/opt/llvm-4.0/bin/../include/c++/v1/__config", directory: "/Users/hugh2/git-local/pub-prototyping/llvm/try_debug")
!7 = !DINamespace(name: "std", scope: null, file: !6, line: 392)
!8 = !DIDerivedType(tag: DW_TAG_typedef, name: "ptrdiff_t", file: !9, line: 51, baseType: !10)
!9 = !DIFile(filename: "/usr/local/opt/llvm-4.0/bin/../lib/clang/4.0.0/include/stddef.h", directory: "/Users/hugh2/git-local/pub-prototyping/llvm/try_debug")
!10 = !DIBasicType(name: "long int", size: 64, encoding: DW_ATE_signed)
!11 = !DIImportedEntity(tag: DW_TAG_imported_declaration, scope: !5, entity: !12, line: 49)
!12 = !DIDerivedType(tag: DW_TAG_typedef, name: "size_t", file: !9, line: 62, baseType: !13)
!13 = !DIBasicType(name: "long unsigned int", size: 64, encoding: DW_ATE_unsigned)
!14 = !DIImportedEntity(tag: DW_TAG_imported_declaration, scope: !5, entity: !15, line: 53)
!15 = !DIDerivedType(tag: DW_TAG_typedef, name: "max_align_t", file: !16, line: 32, baseType: !17)
!16 = !DIFile(filename: "/usr/local/opt/llvm-4.0/bin/../lib/clang/4.0.0/include/__stddef_max_align_t.h", directory: "/Users/hugh2/git-local/pub-prototyping/llvm/try_debug")
!17 = !DIBasicType(name: "long double", size: 128, encoding: DW_ATE_float)
!18 = !DIImportedEntity(tag: DW_TAG_imported_declaration, scope: !5, entity: !12, line: 100)
!19 = !DIImportedEntity(tag: DW_TAG_imported_declaration, scope: !5, entity: !20, line: 101)
!20 = !DIDerivedType(tag: DW_TAG_typedef, name: "div_t", file: !21, line: 85, baseType: !22)
!21 = !DIFile(filename: "/usr/include/stdlib.h", directory: "/Users/hugh2/git-local/pub-prototyping/llvm/try_debug")
!22 = distinct !DICompositeType(tag: DW_TAG_structure_type, file: !21, line: 82, size: 64, elements: !23, identifier: "_ZTS5div_t")
!23 = !{!24, !26}
!24 = !DIDerivedType(tag: DW_TAG_member, name: "quot", scope: !22, file: !21, line: 83, baseType: !25, size: 32)
!25 = !DIBasicType(name: "int", size: 32, encoding: DW_ATE_signed)
!26 = !DIDerivedType(tag: DW_TAG_member, name: "rem", scope: !22, file: !21, line: 84, baseType: !25, size: 32, offset: 32)
!27 = !DIImportedEntity(tag: DW_TAG_imported_declaration, scope: !5, entity: !28, line: 102)
!28 = !DIDerivedType(tag: DW_TAG_typedef, name: "ldiv_t", file: !21, line: 90, baseType: !29)
!29 = distinct !DICompositeType(tag: DW_TAG_structure_type, file: !21, line: 87, size: 128, elements: !30, identifier: "_ZTS6ldiv_t")
!30 = !{!31, !32}
!31 = !DIDerivedType(tag: DW_TAG_member, name: "quot", scope: !29, file: !21, line: 88, baseType: !10, size: 64)
!32 = !DIDerivedType(tag: DW_TAG_member, name: "rem", scope: !29, file: !21, line: 89, baseType: !10, size: 64, offset: 64)
!33 = !DIImportedEntity(tag: DW_TAG_imported_declaration, scope: !5, entity: !34, line: 104)
!34 = !DIDerivedType(tag: DW_TAG_typedef, name: "lldiv_t", file: !21, line: 96, baseType: !35)
!35 = distinct !DICompositeType(tag: DW_TAG_structure_type, file: !21, line: 93, size: 128, elements: !36, identifier: "_ZTS7lldiv_t")
!36 = !{!37, !39}
!37 = !DIDerivedType(tag: DW_TAG_member, name: "quot", scope: !35, file: !21, line: 94, baseType: !38, size: 64)
!38 = !DIBasicType(name: "long long int", size: 64, encoding: DW_ATE_signed)
!39 = !DIDerivedType(tag: DW_TAG_member, name: "rem", scope: !35, file: !21, line: 95, baseType: !38, size: 64, offset: 64)
!40 = !DIImportedEntity(tag: DW_TAG_imported_declaration, scope: !5, entity: !41, line: 106)
!41 = !DISubprogram(name: "atof", scope: !21, file: !21, line: 131, type: !42, isLocal: false, isDefinition: false, flags: DIFlagPrototyped, isOptimized: false)
!42 = !DISubroutineType(types: !43)
!43 = !{!44, !45}
!44 = !DIBasicType(name: "double", size: 64, encoding: DW_ATE_float)
!45 = !DIDerivedType(tag: DW_TAG_pointer_type, baseType: !46, size: 64)
!46 = !DIDerivedType(tag: DW_TAG_const_type, baseType: !47)
!47 = !DIBasicType(name: "char", size: 8, encoding: DW_ATE_signed_char)
!48 = !DIImportedEntity(tag: DW_TAG_imported_declaration, scope: !5, entity: !49, line: 107)
!49 = !DISubprogram(name: "atoi", scope: !21, file: !21, line: 132, type: !50, isLocal: false, isDefinition: false, flags: DIFlagPrototyped, isOptimized: false)
!50 = !DISubroutineType(types: !51)
!51 = !{!25, !45}
!52 = !DIImportedEntity(tag: DW_TAG_imported_declaration, scope: !5, entity: !53, line: 108)
!53 = !DISubprogram(name: "atol", scope: !21, file: !21, line: 133, type: !54, isLocal: false, isDefinition: false, flags: DIFlagPrototyped, isOptimized: false)
!54 = !DISubroutineType(types: !55)
!55 = !{!10, !45}
!56 = !DIImportedEntity(tag: DW_TAG_imported_declaration, scope: !5, entity: !57, line: 110)
!57 = !DISubprogram(name: "atoll", scope: !21, file: !21, line: 136, type: !58, isLocal: false, isDefinition: false, flags: DIFlagPrototyped, isOptimized: false)
!58 = !DISubroutineType(types: !59)
!59 = !{!38, !45}
!60 = !DIImportedEntity(tag: DW_TAG_imported_declaration, scope: !5, entity: !61, line: 112)
!61 = !DISubprogram(name: "strtod", linkageName: "\01_strtod", scope: !21, file: !21, line: 162, type: !62, isLocal: false, isDefinition: false, flags: DIFlagPrototyped, isOptimized: false)
!62 = !DISubroutineType(types: !63)
!63 = !{!44, !45, !64}
!64 = !DIDerivedType(tag: DW_TAG_pointer_type, baseType: !65, size: 64)
!65 = !DIDerivedType(tag: DW_TAG_pointer_type, baseType: !47, size: 64)
!66 = !DIImportedEntity(tag: DW_TAG_imported_declaration, scope: !5, entity: !67, line: 113)
!67 = !DISubprogram(name: "strtof", linkageName: "\01_strtof", scope: !21, file: !21, line: 163, type: !68, isLocal: false, isDefinition: false, flags: DIFlagPrototyped, isOptimized: false)
!68 = !DISubroutineType(types: !69)
!69 = !{!70, !45, !64}
!70 = !DIBasicType(name: "float", size: 32, encoding: DW_ATE_float)
!71 = !DIImportedEntity(tag: DW_TAG_imported_declaration, scope: !5, entity: !72, line: 114)
!72 = !DISubprogram(name: "strtold", scope: !21, file: !21, line: 166, type: !73, isLocal: false, isDefinition: false, flags: DIFlagPrototyped, isOptimized: false)
!73 = !DISubroutineType(types: !74)
!74 = !{!17, !45, !64}
!75 = !DIImportedEntity(tag: DW_TAG_imported_declaration, scope: !5, entity: !76, line: 115)
!76 = !DISubprogram(name: "strtol", scope: !21, file: !21, line: 164, type: !77, isLocal: false, isDefinition: false, flags: DIFlagPrototyped, isOptimized: false)
!77 = !DISubroutineType(types: !78)
!78 = !{!10, !45, !64, !25}
!79 = !DIImportedEntity(tag: DW_TAG_imported_declaration, scope: !5, entity: !80, line: 117)
!80 = !DISubprogram(name: "strtoll", scope: !21, file: !21, line: 169, type: !81, isLocal: false, isDefinition: false, flags: DIFlagPrototyped, isOptimized: false)
!81 = !DISubroutineType(types: !82)
!82 = !{!38, !45, !64, !25}
!83 = !DIImportedEntity(tag: DW_TAG_imported_declaration, scope: !5, entity: !84, line: 119)
!84 = !DISubprogram(name: "strtoul", scope: !21, file: !21, line: 172, type: !85, isLocal: false, isDefinition: false, flags: DIFlagPrototyped, isOptimized: false)
!85 = !DISubroutineType(types: !86)
!86 = !{!13, !45, !64, !25}
!87 = !DIImportedEntity(tag: DW_TAG_imported_declaration, scope: !5, entity: !88, line: 121)
!88 = !DISubprogram(name: "strtoull", scope: !21, file: !21, line: 175, type: !89, isLocal: false, isDefinition: false, flags: DIFlagPrototyped, isOptimized: false)
!89 = !DISubroutineType(types: !90)
!90 = !{!91, !45, !64, !25}
!91 = !DIBasicType(name: "long long unsigned int", size: 64, encoding: DW_ATE_unsigned)
!92 = !DIImportedEntity(tag: DW_TAG_imported_declaration, scope: !5, entity: !93, line: 123)
!93 = !DISubprogram(name: "rand", scope: !21, file: !21, line: 159, type: !94, isLocal: false, isDefinition: false, flags: DIFlagPrototyped, isOptimized: false)
!94 = !DISubroutineType(types: !95)
!95 = !{!25}
!96 = !DIImportedEntity(tag: DW_TAG_imported_declaration, scope: !5, entity: !97, line: 124)
!97 = !DISubprogram(name: "srand", scope: !21, file: !21, line: 161, type: !98, isLocal: false, isDefinition: false, flags: DIFlagPrototyped, isOptimized: false)
!98 = !DISubroutineType(types: !99)
!99 = !{null, !100}
!100 = !DIBasicType(name: "unsigned int", size: 32, encoding: DW_ATE_unsigned)
!101 = !DIImportedEntity(tag: DW_TAG_imported_declaration, scope: !5, entity: !102, line: 125)
!102 = !DISubprogram(name: "calloc", scope: !21, file: !21, line: 140, type: !103, isLocal: false, isDefinition: false, flags: DIFlagPrototyped, isOptimized: false)
!103 = !DISubroutineType(types: !104)
!104 = !{!105, !12, !12}
!105 = !DIDerivedType(tag: DW_TAG_pointer_type, baseType: null, size: 64)
!106 = !DIImportedEntity(tag: DW_TAG_imported_declaration, scope: !5, entity: !107, line: 126)
!107 = !DISubprogram(name: "free", scope: !21, file: !21, line: 143, type: !108, isLocal: false, isDefinition: false, flags: DIFlagPrototyped, isOptimized: false)
!108 = !DISubroutineType(types: !109)
!109 = !{null, !105}
!110 = !DIImportedEntity(tag: DW_TAG_imported_declaration, scope: !5, entity: !111, line: 127)
!111 = !DISubprogram(name: "malloc", scope: !21, file: !21, line: 152, type: !112, isLocal: false, isDefinition: false, flags: DIFlagPrototyped, isOptimized: false)
!112 = !DISubroutineType(types: !113)
!113 = !{!105, !12}
!114 = !DIImportedEntity(tag: DW_TAG_imported_declaration, scope: !5, entity: !115, line: 128)
!115 = !DISubprogram(name: "realloc", scope: !21, file: !21, line: 160, type: !116, isLocal: false, isDefinition: false, flags: DIFlagPrototyped, isOptimized: false)
!116 = !DISubroutineType(types: !117)
!117 = !{!105, !105, !12}
!118 = !DIImportedEntity(tag: DW_TAG_imported_declaration, scope: !5, entity: !119, line: 129)
!119 = !DISubprogram(name: "abort", scope: !21, file: !21, line: 128, type: !120, isLocal: false, isDefinition: false, flags: DIFlagPrototyped | DIFlagNoReturn, isOptimized: false)
!120 = !DISubroutineType(types: !121)
!121 = !{null}
!122 = !DIImportedEntity(tag: DW_TAG_imported_declaration, scope: !5, entity: !123, line: 130)
!123 = !DISubprogram(name: "atexit", scope: !21, file: !21, line: 130, type: !124, isLocal: false, isDefinition: false, flags: DIFlagPrototyped, isOptimized: false)
!124 = !DISubroutineType(types: !125)
!125 = !{!25, !126}
!126 = !DIDerivedType(tag: DW_TAG_pointer_type, baseType: !120, size: 64)
!127 = !DIImportedEntity(tag: DW_TAG_imported_declaration, scope: !5, entity: !128, line: 131)
!128 = !DISubprogram(name: "exit", scope: !21, file: !21, line: 142, type: !129, isLocal: false, isDefinition: false, flags: DIFlagPrototyped | DIFlagNoReturn, isOptimized: false)
!129 = !DISubroutineType(types: !130)
!130 = !{null, !25}
!131 = !DIImportedEntity(tag: DW_TAG_imported_declaration, scope: !5, entity: !132, line: 132)
!132 = !DISubprogram(name: "_Exit", scope: !21, file: !21, line: 195, type: !129, isLocal: false, isDefinition: false, flags: DIFlagPrototyped | DIFlagNoReturn, isOptimized: false)
!133 = !DIImportedEntity(tag: DW_TAG_imported_declaration, scope: !5, entity: !134, line: 133)
!134 = !DISubprogram(name: "getenv", scope: !21, file: !21, line: 144, type: !135, isLocal: false, isDefinition: false, flags: DIFlagPrototyped, isOptimized: false)
!135 = !DISubroutineType(types: !136)
!136 = !{!65, !45}
!137 = !DIImportedEntity(tag: DW_TAG_imported_declaration, scope: !5, entity: !138, line: 134)
!138 = !DISubprogram(name: "system", linkageName: "\01_system", scope: !21, file: !21, line: 187, type: !50, isLocal: false, isDefinition: false, flags: DIFlagPrototyped, isOptimized: false)
!139 = !DIImportedEntity(tag: DW_TAG_imported_declaration, scope: !5, entity: !140, line: 135)
!140 = !DISubprogram(name: "bsearch", scope: !21, file: !21, line: 138, type: !141, isLocal: false, isDefinition: false, flags: DIFlagPrototyped, isOptimized: false)
!141 = !DISubroutineType(types: !142)
!142 = !{!105, !143, !143, !12, !12, !145}
!143 = !DIDerivedType(tag: DW_TAG_pointer_type, baseType: !144, size: 64)
!144 = !DIDerivedType(tag: DW_TAG_const_type, baseType: null)
!145 = !DIDerivedType(tag: DW_TAG_pointer_type, baseType: !146, size: 64)
!146 = !DISubroutineType(types: !147)
!147 = !{!25, !143, !143}
!148 = !DIImportedEntity(tag: DW_TAG_imported_declaration, scope: !5, entity: !149, line: 136)
!149 = !DISubprogram(name: "qsort", scope: !21, file: !21, line: 157, type: !150, isLocal: false, isDefinition: false, flags: DIFlagPrototyped, isOptimized: false)
!150 = !DISubroutineType(types: !151)
!151 = !{null, !105, !12, !12, !145}
!152 = !DIImportedEntity(tag: DW_TAG_imported_declaration, scope: !5, entity: !153, line: 137)
!153 = !DISubprogram(name: "abs", linkageName: "_Z3absx", scope: !154, file: !154, line: 117, type: !155, isLocal: false, isDefinition: false, flags: DIFlagPrototyped, isOptimized: false)
!154 = !DIFile(filename: "/usr/local/opt/llvm-4.0/bin/../include/c++/v1/stdlib.h", directory: "/Users/hugh2/git-local/pub-prototyping/llvm/try_debug")
!155 = !DISubroutineType(types: !156)
!156 = !{!38, !38}
!157 = !DIImportedEntity(tag: DW_TAG_imported_declaration, scope: !5, entity: !158, line: 138)
!158 = !DISubprogram(name: "labs", scope: !21, file: !21, line: 145, type: !159, isLocal: false, isDefinition: false, flags: DIFlagPrototyped, isOptimized: false)
!159 = !DISubroutineType(types: !160)
!160 = !{!10, !10}
!161 = !DIImportedEntity(tag: DW_TAG_imported_declaration, scope: !5, entity: !162, line: 140)
!162 = !DISubprogram(name: "llabs", scope: !21, file: !21, line: 149, type: !155, isLocal: false, isDefinition: false, flags: DIFlagPrototyped, isOptimized: false)
!163 = !DIImportedEntity(tag: DW_TAG_imported_declaration, scope: !5, entity: !164, line: 142)
!164 = !DISubprogram(name: "div", linkageName: "_Z3divxx", scope: !154, file: !154, line: 122, type: !165, isLocal: false, isDefinition: false, flags: DIFlagPrototyped, isOptimized: false)
!165 = !DISubroutineType(types: !166)
!166 = !{!34, !38, !38}
!167 = !DIImportedEntity(tag: DW_TAG_imported_declaration, scope: !5, entity: !168, line: 143)
!168 = !DISubprogram(name: "ldiv", scope: !21, file: !21, line: 146, type: !169, isLocal: false, isDefinition: false, flags: DIFlagPrototyped, isOptimized: false)
!169 = !DISubroutineType(types: !170)
!170 = !{!28, !10, !10}
!171 = !DIImportedEntity(tag: DW_TAG_imported_declaration, scope: !5, entity: !172, line: 145)
!172 = !DISubprogram(name: "lldiv", scope: !21, file: !21, line: 150, type: !165, isLocal: false, isDefinition: false, flags: DIFlagPrototyped, isOptimized: false)
!173 = !DIImportedEntity(tag: DW_TAG_imported_declaration, scope: !5, entity: !174, line: 147)
!174 = !DISubprogram(name: "mblen", scope: !21, file: !21, line: 153, type: !175, isLocal: false, isDefinition: false, flags: DIFlagPrototyped, isOptimized: false)
!175 = !DISubroutineType(types: !176)
!176 = !{!25, !45, !12}
!177 = !DIImportedEntity(tag: DW_TAG_imported_declaration, scope: !5, entity: !178, line: 148)
!178 = !DISubprogram(name: "mbtowc", scope: !21, file: !21, line: 155, type: !179, isLocal: false, isDefinition: false, flags: DIFlagPrototyped, isOptimized: false)
!179 = !DISubroutineType(types: !180)
!180 = !{!25, !181, !45, !12}
!181 = !DIDerivedType(tag: DW_TAG_pointer_type, baseType: !182, size: 64)
!182 = !DIBasicType(name: "wchar_t", size: 32, encoding: DW_ATE_signed)
!183 = !DIImportedEntity(tag: DW_TAG_imported_declaration, scope: !5, entity: !184, line: 149)
!184 = !DISubprogram(name: "wctomb", scope: !21, file: !21, line: 192, type: !185, isLocal: false, isDefinition: false, flags: DIFlagPrototyped, isOptimized: false)
!185 = !DISubroutineType(types: !186)
!186 = !{!25, !65, !182}
!187 = !DIImportedEntity(tag: DW_TAG_imported_declaration, scope: !5, entity: !188, line: 150)
!188 = !DISubprogram(name: "mbstowcs", scope: !21, file: !21, line: 154, type: !189, isLocal: false, isDefinition: false, flags: DIFlagPrototyped, isOptimized: false)
!189 = !DISubroutineType(types: !190)
!190 = !{!12, !181, !45, !12}
!191 = !DIImportedEntity(tag: DW_TAG_imported_declaration, scope: !5, entity: !192, line: 151)
!192 = !DISubprogram(name: "wcstombs", scope: !21, file: !21, line: 191, type: !193, isLocal: false, isDefinition: false, flags: DIFlagPrototyped, isOptimized: false)
!193 = !DISubroutineType(types: !194)
!194 = !{!12, !65, !195, !12}
!195 = !DIDerivedType(tag: DW_TAG_pointer_type, baseType: !196, size: 64)
!196 = !DIDerivedType(tag: DW_TAG_const_type, baseType: !182)
!197 = !DIImportedEntity(tag: DW_TAG_imported_declaration, scope: !5, entity: !198, line: 327)
!198 = !DIDerivedType(tag: DW_TAG_typedef, name: "float_t", file: !199, line: 44, baseType: !70)
!199 = !DIFile(filename: "/usr/include/math.h", directory: "/Users/hugh2/git-local/pub-prototyping/llvm/try_debug")
!200 = !DIImportedEntity(tag: DW_TAG_imported_declaration, scope: !5, entity: !201, line: 328)
!201 = !DIDerivedType(tag: DW_TAG_typedef, name: "double_t", file: !199, line: 45, baseType: !44)
!202 = !DIImportedEntity(tag: DW_TAG_imported_declaration, scope: !5, entity: !203, line: 331)
!203 = !DISubprogram(name: "abs", linkageName: "_Z3abse", scope: !204, file: !204, line: 648, type: !205, isLocal: false, isDefinition: false, flags: DIFlagPrototyped, isOptimized: false)
!204 = !DIFile(filename: "/usr/local/opt/llvm-4.0/bin/../include/c++/v1/math.h", directory: "/Users/hugh2/git-local/pub-prototyping/llvm/try_debug")
!205 = !DISubroutineType(types: !206)
!206 = !{!17, !17}
!207 = !DIImportedEntity(tag: DW_TAG_imported_declaration, scope: !5, entity: !208, line: 335)
!208 = !DISubprogram(name: "acosf", scope: !199, file: !199, line: 322, type: !209, isLocal: false, isDefinition: false, flags: DIFlagPrototyped, isOptimized: false)
!209 = !DISubroutineType(types: !210)
!210 = !{!70, !70}
!211 = !DIImportedEntity(tag: DW_TAG_imported_declaration, scope: !5, entity: !212, line: 337)
!212 = !DISubprogram(name: "asinf", scope: !199, file: !199, line: 326, type: !209, isLocal: false, isDefinition: false, flags: DIFlagPrototyped, isOptimized: false)
!213 = !DIImportedEntity(tag: DW_TAG_imported_declaration, scope: !5, entity: !214, line: 339)
!214 = !DISubprogram(name: "atanf", scope: !199, file: !199, line: 330, type: !209, isLocal: false, isDefinition: false, flags: DIFlagPrototyped, isOptimized: false)
!215 = !DIImportedEntity(tag: DW_TAG_imported_declaration, scope: !5, entity: !216, line: 341)
!216 = !DISubprogram(name: "atan2f", scope: !199, file: !199, line: 334, type: !217, isLocal: false, isDefinition: false, flags: DIFlagPrototyped, isOptimized: false)
!217 = !DISubroutineType(types: !218)
!218 = !{!70, !70, !70}
!219 = !DIImportedEntity(tag: DW_TAG_imported_declaration, scope: !5, entity: !220, line: 343)
!220 = !DISubprogram(name: "ceilf", scope: !199, file: !199, line: 469, type: !209, isLocal: false, isDefinition: false, flags: DIFlagPrototyped, isOptimized: false)
!221 = !DIImportedEntity(tag: DW_TAG_imported_declaration, scope: !5, entity: !222, line: 345)
!222 = !DISubprogram(name: "cosf", scope: !199, file: !199, line: 338, type: !209, isLocal: false, isDefinition: false, flags: DIFlagPrototyped, isOptimized: false)
!223 = !DIImportedEntity(tag: DW_TAG_imported_declaration, scope: !5, entity: !224, line: 347)
!224 = !DISubprogram(name: "coshf", scope: !199, file: !199, line: 362, type: !209, isLocal: false, isDefinition: false, flags: DIFlagPrototyped, isOptimized: false)
!225 = !DIImportedEntity(tag: DW_TAG_imported_declaration, scope: !5, entity: !226, line: 350)
!226 = !DISubprogram(name: "expf", scope: !199, file: !199, line: 374, type: !209, isLocal: false, isDefinition: false, flags: DIFlagPrototyped, isOptimized: false)
!227 = !DIImportedEntity(tag: DW_TAG_imported_declaration, scope: !5, entity: !228, line: 353)
!228 = !DISubprogram(name: "fabsf", scope: !199, file: !199, line: 430, type: !209, isLocal: false, isDefinition: false, flags: DIFlagPrototyped, isOptimized: false)
!229 = !DIImportedEntity(tag: DW_TAG_imported_declaration, scope: !5, entity: !230, line: 355)
!230 = !DISubprogram(name: "floorf", scope: !199, file: !199, line: 473, type: !209, isLocal: false, isDefinition: false, flags: DIFlagPrototyped, isOptimized: false)
!231 = !DIImportedEntity(tag: DW_TAG_imported_declaration, scope: !5, entity: !232, line: 358)
!232 = !DISubprogram(name: "fmodf", scope: !199, file: !199, line: 513, type: !217, isLocal: false, isDefinition: false, flags: DIFlagPrototyped, isOptimized: false)
!233 = !DIImportedEntity(tag: DW_TAG_imported_declaration, scope: !5, entity: !234, line: 361)
!234 = !DISubprogram(name: "frexpf", scope: !199, file: !199, line: 414, type: !235, isLocal: false, isDefinition: false, flags: DIFlagPrototyped, isOptimized: false)
!235 = !DISubroutineType(types: !236)
!236 = !{!70, !70, !237}
!237 = !DIDerivedType(tag: DW_TAG_pointer_type, baseType: !25, size: 64)
!238 = !DIImportedEntity(tag: DW_TAG_imported_declaration, scope: !5, entity: !239, line: 363)
!239 = !DISubprogram(name: "ldexpf", scope: !199, file: !199, line: 410, type: !240, isLocal: false, isDefinition: false, flags: DIFlagPrototyped, isOptimized: false)
!240 = !DISubroutineType(types: !241)
!241 = !{!70, !70, !25}
!242 = !DIImportedEntity(tag: DW_TAG_imported_declaration, scope: !5, entity: !243, line: 366)
!243 = !DISubprogram(name: "logf", scope: !199, file: !199, line: 386, type: !209, isLocal: false, isDefinition: false, flags: DIFlagPrototyped, isOptimized: false)
!244 = !DIImportedEntity(tag: DW_TAG_imported_declaration, scope: !5, entity: !245, line: 369)
!245 = !DISubprogram(name: "log10f", scope: !199, file: !199, line: 390, type: !209, isLocal: false, isDefinition: false, flags: DIFlagPrototyped, isOptimized: false)
!246 = !DIImportedEntity(tag: DW_TAG_imported_declaration, scope: !5, entity: !247, line: 370)
!247 = !DISubprogram(name: "modf", linkageName: "_Z4modfePe", scope: !204, file: !204, line: 857, type: !248, isLocal: false, isDefinition: false, flags: DIFlagPrototyped, isOptimized: false)
!248 = !DISubroutineType(types: !249)
!249 = !{!17, !17, !250}
!250 = !DIDerivedType(tag: DW_TAG_pointer_type, baseType: !17, size: 64)
!251 = !DIImportedEntity(tag: DW_TAG_imported_declaration, scope: !5, entity: !252, line: 371)
!252 = !DISubprogram(name: "modff", scope: !199, file: !199, line: 406, type: !253, isLocal: false, isDefinition: false, flags: DIFlagPrototyped, isOptimized: false)
!253 = !DISubroutineType(types: !254)
!254 = !{!70, !70, !255}
!255 = !DIDerivedType(tag: DW_TAG_pointer_type, baseType: !70, size: 64)
!256 = !DIImportedEntity(tag: DW_TAG_imported_declaration, scope: !5, entity: !257, line: 374)
!257 = !DISubprogram(name: "powf", scope: !199, file: !199, line: 442, type: !217, isLocal: false, isDefinition: false, flags: DIFlagPrototyped, isOptimized: false)
!258 = !DIImportedEntity(tag: DW_TAG_imported_declaration, scope: !5, entity: !259, line: 377)
!259 = !DISubprogram(name: "sinf", scope: !199, file: !199, line: 342, type: !209, isLocal: false, isDefinition: false, flags: DIFlagPrototyped, isOptimized: false)
!260 = !DIImportedEntity(tag: DW_TAG_imported_declaration, scope: !5, entity: !261, line: 379)
!261 = !DISubprogram(name: "sinhf", scope: !199, file: !199, line: 366, type: !209, isLocal: false, isDefinition: false, flags: DIFlagPrototyped, isOptimized: false)
!262 = !DIImportedEntity(tag: DW_TAG_imported_declaration, scope: !5, entity: !263, line: 382)
!263 = !DISubprogram(name: "sqrtf", scope: !199, file: !199, line: 446, type: !209, isLocal: false, isDefinition: false, flags: DIFlagPrototyped, isOptimized: false)
!264 = !DIImportedEntity(tag: DW_TAG_imported_declaration, scope: !5, entity: !265, line: 384)
!265 = !DISubprogram(name: "tanf", scope: !199, file: !199, line: 346, type: !209, isLocal: false, isDefinition: false, flags: DIFlagPrototyped, isOptimized: false)
!266 = !DIImportedEntity(tag: DW_TAG_imported_declaration, scope: !5, entity: !267, line: 387)
!267 = !DISubprogram(name: "tanhf", scope: !199, file: !199, line: 370, type: !209, isLocal: false, isDefinition: false, flags: DIFlagPrototyped, isOptimized: false)
!268 = !DIImportedEntity(tag: DW_TAG_imported_declaration, scope: !5, entity: !269, line: 390)
!269 = !DISubprogram(name: "acoshf", scope: !199, file: !199, line: 350, type: !209, isLocal: false, isDefinition: false, flags: DIFlagPrototyped, isOptimized: false)
!270 = !DIImportedEntity(tag: DW_TAG_imported_declaration, scope: !5, entity: !271, line: 392)
!271 = !DISubprogram(name: "asinhf", scope: !199, file: !199, line: 354, type: !209, isLocal: false, isDefinition: false, flags: DIFlagPrototyped, isOptimized: false)
!272 = !DIImportedEntity(tag: DW_TAG_imported_declaration, scope: !5, entity: !273, line: 394)
!273 = !DISubprogram(name: "atanhf", scope: !199, file: !199, line: 358, type: !209, isLocal: false, isDefinition: false, flags: DIFlagPrototyped, isOptimized: false)
!274 = !DIImportedEntity(tag: DW_TAG_imported_declaration, scope: !5, entity: !275, line: 396)
!275 = !DISubprogram(name: "cbrtf", scope: !199, file: !199, line: 434, type: !209, isLocal: false, isDefinition: false, flags: DIFlagPrototyped, isOptimized: false)
!276 = !DIImportedEntity(tag: DW_TAG_imported_declaration, scope: !5, entity: !277, line: 399)
!277 = !DISubprogram(name: "copysignf", scope: !199, file: !199, line: 525, type: !217, isLocal: false, isDefinition: false, flags: DIFlagPrototyped, isOptimized: false)
!278 = !DIImportedEntity(tag: DW_TAG_imported_declaration, scope: !5, entity: !279, line: 403)
!279 = !DISubprogram(name: "erff", scope: !199, file: !199, line: 450, type: !209, isLocal: false, isDefinition: false, flags: DIFlagPrototyped, isOptimized: false)
!280 = !DIImportedEntity(tag: DW_TAG_imported_declaration, scope: !5, entity: !281, line: 405)
!281 = !DISubprogram(name: "erfcf", scope: !199, file: !199, line: 454, type: !209, isLocal: false, isDefinition: false, flags: DIFlagPrototyped, isOptimized: false)
!282 = !DIImportedEntity(tag: DW_TAG_imported_declaration, scope: !5, entity: !283, line: 407)
!283 = !DISubprogram(name: "exp2f", scope: !199, file: !199, line: 378, type: !209, isLocal: false, isDefinition: false, flags: DIFlagPrototyped, isOptimized: false)
!284 = !DIImportedEntity(tag: DW_TAG_imported_declaration, scope: !5, entity: !285, line: 409)
!285 = !DISubprogram(name: "expm1f", scope: !199, file: !199, line: 382, type: !209, isLocal: false, isDefinition: false, flags: DIFlagPrototyped, isOptimized: false)
!286 = !DIImportedEntity(tag: DW_TAG_imported_declaration, scope: !5, entity: !287, line: 411)
!287 = !DISubprogram(name: "fdimf", scope: !199, file: !199, line: 541, type: !217, isLocal: false, isDefinition: false, flags: DIFlagPrototyped, isOptimized: false)
!288 = !DIImportedEntity(tag: DW_TAG_imported_declaration, scope: !5, entity: !289, line: 412)
!289 = !DISubprogram(name: "fmaf", scope: !199, file: !199, line: 553, type: !290, isLocal: false, isDefinition: false, flags: DIFlagPrototyped, isOptimized: false)
!290 = !DISubroutineType(types: !291)
!291 = !{!70, !70, !70, !70}
!292 = !DIImportedEntity(tag: DW_TAG_imported_declaration, scope: !5, entity: !293, line: 415)
!293 = !DISubprogram(name: "fmaxf", scope: !199, file: !199, line: 545, type: !217, isLocal: false, isDefinition: false, flags: DIFlagPrototyped, isOptimized: false)
!294 = !DIImportedEntity(tag: DW_TAG_imported_declaration, scope: !5, entity: !295, line: 417)
!295 = !DISubprogram(name: "fminf", scope: !199, file: !199, line: 549, type: !217, isLocal: false, isDefinition: false, flags: DIFlagPrototyped, isOptimized: false)
!296 = !DIImportedEntity(tag: DW_TAG_imported_declaration, scope: !5, entity: !297, line: 419)
!297 = !DISubprogram(name: "hypotf", scope: !199, file: !199, line: 438, type: !217, isLocal: false, isDefinition: false, flags: DIFlagPrototyped, isOptimized: false)
!298 = !DIImportedEntity(tag: DW_TAG_imported_declaration, scope: !5, entity: !299, line: 421)
!299 = !DISubprogram(name: "ilogbf", scope: !199, file: !199, line: 418, type: !300, isLocal: false, isDefinition: false, flags: DIFlagPrototyped, isOptimized: false)
!300 = !DISubroutineType(types: !301)
!301 = !{!25, !70}
!302 = !DIImportedEntity(tag: DW_TAG_imported_declaration, scope: !5, entity: !303, line: 423)
!303 = !DISubprogram(name: "lgammaf", scope: !199, file: !199, line: 461, type: !209, isLocal: false, isDefinition: false, flags: DIFlagPrototyped, isOptimized: false)
!304 = !DIImportedEntity(tag: DW_TAG_imported_declaration, scope: !5, entity: !305, line: 425)
!305 = !DISubprogram(name: "llrintf", scope: !199, file: !199, line: 500, type: !306, isLocal: false, isDefinition: false, flags: DIFlagPrototyped, isOptimized: false)
!306 = !DISubroutineType(types: !307)
!307 = !{!38, !70}
!308 = !DIImportedEntity(tag: DW_TAG_imported_declaration, scope: !5, entity: !309, line: 427)
!309 = !DISubprogram(name: "llroundf", scope: !199, file: !199, line: 504, type: !306, isLocal: false, isDefinition: false, flags: DIFlagPrototyped, isOptimized: false)
!310 = !DIImportedEntity(tag: DW_TAG_imported_declaration, scope: !5, entity: !311, line: 429)
!311 = !DISubprogram(name: "log1pf", scope: !199, file: !199, line: 398, type: !209, isLocal: false, isDefinition: false, flags: DIFlagPrototyped, isOptimized: false)
!312 = !DIImportedEntity(tag: DW_TAG_imported_declaration, scope: !5, entity: !313, line: 431)
!313 = !DISubprogram(name: "log2f", scope: !199, file: !199, line: 394, type: !209, isLocal: false, isDefinition: false, flags: DIFlagPrototyped, isOptimized: false)
!314 = !DIImportedEntity(tag: DW_TAG_imported_declaration, scope: !5, entity: !315, line: 433)
!315 = !DISubprogram(name: "logbf", scope: !199, file: !199, line: 402, type: !209, isLocal: false, isDefinition: false, flags: DIFlagPrototyped, isOptimized: false)
!316 = !DIImportedEntity(tag: DW_TAG_imported_declaration, scope: !5, entity: !317, line: 435)
!317 = !DISubprogram(name: "lrintf", scope: !199, file: !199, line: 485, type: !318, isLocal: false, isDefinition: false, flags: DIFlagPrototyped, isOptimized: false)
!318 = !DISubroutineType(types: !319)
!319 = !{!10, !70}
!320 = !DIImportedEntity(tag: DW_TAG_imported_declaration, scope: !5, entity: !321, line: 437)
!321 = !DISubprogram(name: "lroundf", scope: !199, file: !199, line: 493, type: !318, isLocal: false, isDefinition: false, flags: DIFlagPrototyped, isOptimized: false)
!322 = !DIImportedEntity(tag: DW_TAG_imported_declaration, scope: !5, entity: !323, line: 440)
!323 = !DISubprogram(name: "nan", scope: !199, file: !199, line: 530, type: !42, isLocal: false, isDefinition: false, flags: DIFlagPrototyped, isOptimized: false)
!324 = !DIImportedEntity(tag: DW_TAG_imported_declaration, scope: !5, entity: !325, line: 441)
!325 = !DISubprogram(name: "nanf", scope: !199, file: !199, line: 529, type: !326, isLocal: false, isDefinition: false, flags: DIFlagPrototyped, isOptimized: false)
!326 = !DISubroutineType(types: !327)
!327 = !{!70, !45}
!328 = !DIImportedEntity(tag: DW_TAG_imported_declaration, scope: !5, entity: !329, line: 445)
!329 = !DISubprogram(name: "nearbyintf", scope: !199, file: !199, line: 477, type: !209, isLocal: false, isDefinition: false, flags: DIFlagPrototyped, isOptimized: false)
!330 = !DIImportedEntity(tag: DW_TAG_imported_declaration, scope: !5, entity: !331, line: 447)
!331 = !DISubprogram(name: "nextafterf", scope: !199, file: !199, line: 533, type: !217, isLocal: false, isDefinition: false, flags: DIFlagPrototyped, isOptimized: false)
!332 = !DIImportedEntity(tag: DW_TAG_imported_declaration, scope: !5, entity: !333, line: 449)
!333 = !DISubprogram(name: "nexttowardf", scope: !199, file: !199, line: 538, type: !334, isLocal: false, isDefinition: false, flags: DIFlagPrototyped, isOptimized: false)
!334 = !DISubroutineType(types: !335)
!335 = !{!70, !70, !17}
!336 = !DIImportedEntity(tag: DW_TAG_imported_declaration, scope: !5, entity: !337, line: 451)
!337 = !DISubprogram(name: "remainderf", scope: !199, file: !199, line: 517, type: !217, isLocal: false, isDefinition: false, flags: DIFlagPrototyped, isOptimized: false)
!338 = !DIImportedEntity(tag: DW_TAG_imported_declaration, scope: !5, entity: !339, line: 453)
!339 = !DISubprogram(name: "remquof", scope: !199, file: !199, line: 521, type: !340, isLocal: false, isDefinition: false, flags: DIFlagPrototyped, isOptimized: false)
!340 = !DISubroutineType(types: !341)
!341 = !{!70, !70, !70, !237}
!342 = !DIImportedEntity(tag: DW_TAG_imported_declaration, scope: !5, entity: !343, line: 455)
!343 = !DISubprogram(name: "rintf", scope: !199, file: !199, line: 481, type: !209, isLocal: false, isDefinition: false, flags: DIFlagPrototyped, isOptimized: false)
!344 = !DIImportedEntity(tag: DW_TAG_imported_declaration, scope: !5, entity: !345, line: 457)
!345 = !DISubprogram(name: "roundf", scope: !199, file: !199, line: 489, type: !209, isLocal: false, isDefinition: false, flags: DIFlagPrototyped, isOptimized: false)
!346 = !DIImportedEntity(tag: DW_TAG_imported_declaration, scope: !5, entity: !347, line: 459)
!347 = !DISubprogram(name: "scalblnf", scope: !199, file: !199, line: 426, type: !348, isLocal: false, isDefinition: false, flags: DIFlagPrototyped, isOptimized: false)
!348 = !DISubroutineType(types: !349)
!349 = !{!70, !70, !10}
!350 = !DIImportedEntity(tag: DW_TAG_imported_declaration, scope: !5, entity: !351, line: 461)
!351 = !DISubprogram(name: "scalbnf", scope: !199, file: !199, line: 422, type: !240, isLocal: false, isDefinition: false, flags: DIFlagPrototyped, isOptimized: false)
!352 = !DIImportedEntity(tag: DW_TAG_imported_declaration, scope: !5, entity: !353, line: 463)
!353 = !DISubprogram(name: "tgammaf", scope: !199, file: !199, line: 465, type: !209, isLocal: false, isDefinition: false, flags: DIFlagPrototyped, isOptimized: false)
!354 = !DIImportedEntity(tag: DW_TAG_imported_declaration, scope: !5, entity: !355, line: 465)
!355 = !DISubprogram(name: "truncf", scope: !199, file: !199, line: 509, type: !209, isLocal: false, isDefinition: false, flags: DIFlagPrototyped, isOptimized: false)
!356 = !DIImportedEntity(tag: DW_TAG_imported_declaration, scope: !5, entity: !357, line: 468)
!357 = !DISubprogram(name: "acosl", scope: !199, file: !199, line: 324, type: !205, isLocal: false, isDefinition: false, flags: DIFlagPrototyped, isOptimized: false)
!358 = !DIImportedEntity(tag: DW_TAG_imported_declaration, scope: !5, entity: !359, line: 469)
!359 = !DISubprogram(name: "asinl", scope: !199, file: !199, line: 328, type: !205, isLocal: false, isDefinition: false, flags: DIFlagPrototyped, isOptimized: false)
!360 = !DIImportedEntity(tag: DW_TAG_imported_declaration, scope: !5, entity: !361, line: 470)
!361 = !DISubprogram(name: "atanl", scope: !199, file: !199, line: 332, type: !205, isLocal: false, isDefinition: false, flags: DIFlagPrototyped, isOptimized: false)
!362 = !DIImportedEntity(tag: DW_TAG_imported_declaration, scope: !5, entity: !363, line: 471)
!363 = !DISubprogram(name: "atan2l", scope: !199, file: !199, line: 336, type: !364, isLocal: false, isDefinition: false, flags: DIFlagPrototyped, isOptimized: false)
!364 = !DISubroutineType(types: !365)
!365 = !{!17, !17, !17}
!366 = !DIImportedEntity(tag: DW_TAG_imported_declaration, scope: !5, entity: !367, line: 472)
!367 = !DISubprogram(name: "ceill", scope: !199, file: !199, line: 471, type: !205, isLocal: false, isDefinition: false, flags: DIFlagPrototyped, isOptimized: false)
!368 = !DIImportedEntity(tag: DW_TAG_imported_declaration, scope: !5, entity: !369, line: 473)
!369 = !DISubprogram(name: "cosl", scope: !199, file: !199, line: 340, type: !205, isLocal: false, isDefinition: false, flags: DIFlagPrototyped, isOptimized: false)
!370 = !DIImportedEntity(tag: DW_TAG_imported_declaration, scope: !5, entity: !371, line: 474)
!371 = !DISubprogram(name: "coshl", scope: !199, file: !199, line: 364, type: !205, isLocal: false, isDefinition: false, flags: DIFlagPrototyped, isOptimized: false)
!372 = !DIImportedEntity(tag: DW_TAG_imported_declaration, scope: !5, entity: !373, line: 475)
!373 = !DISubprogram(name: "expl", scope: !199, file: !199, line: 376, type: !205, isLocal: false, isDefinition: false, flags: DIFlagPrototyped, isOptimized: false)
!374 = !DIImportedEntity(tag: DW_TAG_imported_declaration, scope: !5, entity: !375, line: 476)
!375 = !DISubprogram(name: "fabsl", scope: !199, file: !199, line: 432, type: !205, isLocal: false, isDefinition: false, flags: DIFlagPrototyped, isOptimized: false)
!376 = !DIImportedEntity(tag: DW_TAG_imported_declaration, scope: !5, entity: !377, line: 477)
!377 = !DISubprogram(name: "floorl", scope: !199, file: !199, line: 475, type: !205, isLocal: false, isDefinition: false, flags: DIFlagPrototyped, isOptimized: false)
!378 = !DIImportedEntity(tag: DW_TAG_imported_declaration, scope: !5, entity: !379, line: 478)
!379 = !DISubprogram(name: "fmodl", scope: !199, file: !199, line: 515, type: !364, isLocal: false, isDefinition: false, flags: DIFlagPrototyped, isOptimized: false)
!380 = !DIImportedEntity(tag: DW_TAG_imported_declaration, scope: !5, entity: !381, line: 479)
!381 = !DISubprogram(name: "frexpl", scope: !199, file: !199, line: 416, type: !382, isLocal: false, isDefinition: false, flags: DIFlagPrototyped, isOptimized: false)
!382 = !DISubroutineType(types: !383)
!383 = !{!17, !17, !237}
!384 = !DIImportedEntity(tag: DW_TAG_imported_declaration, scope: !5, entity: !385, line: 480)
!385 = !DISubprogram(name: "ldexpl", scope: !199, file: !199, line: 412, type: !386, isLocal: false, isDefinition: false, flags: DIFlagPrototyped, isOptimized: false)
!386 = !DISubroutineType(types: !387)
!387 = !{!17, !17, !25}
!388 = !DIImportedEntity(tag: DW_TAG_imported_declaration, scope: !5, entity: !389, line: 481)
!389 = !DISubprogram(name: "logl", scope: !199, file: !199, line: 388, type: !205, isLocal: false, isDefinition: false, flags: DIFlagPrototyped, isOptimized: false)
!390 = !DIImportedEntity(tag: DW_TAG_imported_declaration, scope: !5, entity: !391, line: 482)
!391 = !DISubprogram(name: "log10l", scope: !199, file: !199, line: 392, type: !205, isLocal: false, isDefinition: false, flags: DIFlagPrototyped, isOptimized: false)
!392 = !DIImportedEntity(tag: DW_TAG_imported_declaration, scope: !5, entity: !393, line: 483)
!393 = !DISubprogram(name: "modfl", scope: !199, file: !199, line: 408, type: !248, isLocal: false, isDefinition: false, flags: DIFlagPrototyped, isOptimized: false)
!394 = !DIImportedEntity(tag: DW_TAG_imported_declaration, scope: !5, entity: !395, line: 484)
!395 = !DISubprogram(name: "powl", scope: !199, file: !199, line: 444, type: !364, isLocal: false, isDefinition: false, flags: DIFlagPrototyped, isOptimized: false)
!396 = !DIImportedEntity(tag: DW_TAG_imported_declaration, scope: !5, entity: !397, line: 485)
!397 = !DISubprogram(name: "sinl", scope: !199, file: !199, line: 344, type: !205, isLocal: false, isDefinition: false, flags: DIFlagPrototyped, isOptimized: false)
!398 = !DIImportedEntity(tag: DW_TAG_imported_declaration, scope: !5, entity: !399, line: 486)
!399 = !DISubprogram(name: "sinhl", scope: !199, file: !199, line: 368, type: !205, isLocal: false, isDefinition: false, flags: DIFlagPrototyped, isOptimized: false)
!400 = !DIImportedEntity(tag: DW_TAG_imported_declaration, scope: !5, entity: !401, line: 487)
!401 = !DISubprogram(name: "sqrtl", scope: !199, file: !199, line: 448, type: !205, isLocal: false, isDefinition: false, flags: DIFlagPrototyped, isOptimized: false)
!402 = !DIImportedEntity(tag: DW_TAG_imported_declaration, scope: !5, entity: !403, line: 488)
!403 = !DISubprogram(name: "tanl", scope: !199, file: !199, line: 348, type: !205, isLocal: false, isDefinition: false, flags: DIFlagPrototyped, isOptimized: false)
!404 = !DIImportedEntity(tag: DW_TAG_imported_declaration, scope: !5, entity: !405, line: 490)
!405 = !DISubprogram(name: "tanhl", scope: !199, file: !199, line: 372, type: !205, isLocal: false, isDefinition: false, flags: DIFlagPrototyped, isOptimized: false)
!406 = !DIImportedEntity(tag: DW_TAG_imported_declaration, scope: !5, entity: !407, line: 491)
!407 = !DISubprogram(name: "acoshl", scope: !199, file: !199, line: 352, type: !205, isLocal: false, isDefinition: false, flags: DIFlagPrototyped, isOptimized: false)
!408 = !DIImportedEntity(tag: DW_TAG_imported_declaration, scope: !5, entity: !409, line: 492)
!409 = !DISubprogram(name: "asinhl", scope: !199, file: !199, line: 356, type: !205, isLocal: false, isDefinition: false, flags: DIFlagPrototyped, isOptimized: false)
!410 = !DIImportedEntity(tag: DW_TAG_imported_declaration, scope: !5, entity: !411, line: 493)
!411 = !DISubprogram(name: "atanhl", scope: !199, file: !199, line: 360, type: !205, isLocal: false, isDefinition: false, flags: DIFlagPrototyped, isOptimized: false)
!412 = !DIImportedEntity(tag: DW_TAG_imported_declaration, scope: !5, entity: !413, line: 494)
!413 = !DISubprogram(name: "cbrtl", scope: !199, file: !199, line: 436, type: !205, isLocal: false, isDefinition: false, flags: DIFlagPrototyped, isOptimized: false)
!414 = !DIImportedEntity(tag: DW_TAG_imported_declaration, scope: !5, entity: !415, line: 496)
!415 = !DISubprogram(name: "copysignl", scope: !199, file: !199, line: 527, type: !364, isLocal: false, isDefinition: false, flags: DIFlagPrototyped, isOptimized: false)
!416 = !DIImportedEntity(tag: DW_TAG_imported_declaration, scope: !5, entity: !417, line: 499)
!417 = !DISubprogram(name: "erfl", scope: !199, file: !199, line: 452, type: !205, isLocal: false, isDefinition: false, flags: DIFlagPrototyped, isOptimized: false)
!418 = !DIImportedEntity(tag: DW_TAG_imported_declaration, scope: !5, entity: !419, line: 500)
!419 = !DISubprogram(name: "erfcl", scope: !199, file: !199, line: 456, type: !205, isLocal: false, isDefinition: false, flags: DIFlagPrototyped, isOptimized: false)
!420 = !DIImportedEntity(tag: DW_TAG_imported_declaration, scope: !5, entity: !421, line: 501)
!421 = !DISubprogram(name: "exp2l", scope: !199, file: !199, line: 380, type: !205, isLocal: false, isDefinition: false, flags: DIFlagPrototyped, isOptimized: false)
!422 = !DIImportedEntity(tag: DW_TAG_imported_declaration, scope: !5, entity: !423, line: 502)
!423 = !DISubprogram(name: "expm1l", scope: !199, file: !199, line: 384, type: !205, isLocal: false, isDefinition: false, flags: DIFlagPrototyped, isOptimized: false)
!424 = !DIImportedEntity(tag: DW_TAG_imported_declaration, scope: !5, entity: !425, line: 503)
!425 = !DISubprogram(name: "fdiml", scope: !199, file: !199, line: 543, type: !364, isLocal: false, isDefinition: false, flags: DIFlagPrototyped, isOptimized: false)
!426 = !DIImportedEntity(tag: DW_TAG_imported_declaration, scope: !5, entity: !427, line: 504)
!427 = !DISubprogram(name: "fmal", scope: !199, file: !199, line: 555, type: !428, isLocal: false, isDefinition: false, flags: DIFlagPrototyped, isOptimized: false)
!428 = !DISubroutineType(types: !429)
!429 = !{!17, !17, !17, !17}
!430 = !DIImportedEntity(tag: DW_TAG_imported_declaration, scope: !5, entity: !431, line: 505)
!431 = !DISubprogram(name: "fmaxl", scope: !199, file: !199, line: 547, type: !364, isLocal: false, isDefinition: false, flags: DIFlagPrototyped, isOptimized: false)
!432 = !DIImportedEntity(tag: DW_TAG_imported_declaration, scope: !5, entity: !433, line: 506)
!433 = !DISubprogram(name: "fminl", scope: !199, file: !199, line: 551, type: !364, isLocal: false, isDefinition: false, flags: DIFlagPrototyped, isOptimized: false)
!434 = !DIImportedEntity(tag: DW_TAG_imported_declaration, scope: !5, entity: !435, line: 507)
!435 = !DISubprogram(name: "hypotl", scope: !199, file: !199, line: 440, type: !364, isLocal: false, isDefinition: false, flags: DIFlagPrototyped, isOptimized: false)
!436 = !DIImportedEntity(tag: DW_TAG_imported_declaration, scope: !5, entity: !437, line: 508)
!437 = !DISubprogram(name: "ilogbl", scope: !199, file: !199, line: 420, type: !438, isLocal: false, isDefinition: false, flags: DIFlagPrototyped, isOptimized: false)
!438 = !DISubroutineType(types: !439)
!439 = !{!25, !17}
!440 = !DIImportedEntity(tag: DW_TAG_imported_declaration, scope: !5, entity: !441, line: 509)
!441 = !DISubprogram(name: "lgammal", scope: !199, file: !199, line: 463, type: !205, isLocal: false, isDefinition: false, flags: DIFlagPrototyped, isOptimized: false)
!442 = !DIImportedEntity(tag: DW_TAG_imported_declaration, scope: !5, entity: !443, line: 510)
!443 = !DISubprogram(name: "llrintl", scope: !199, file: !199, line: 502, type: !444, isLocal: false, isDefinition: false, flags: DIFlagPrototyped, isOptimized: false)
!444 = !DISubroutineType(types: !445)
!445 = !{!38, !17}
!446 = !DIImportedEntity(tag: DW_TAG_imported_declaration, scope: !5, entity: !447, line: 511)
!447 = !DISubprogram(name: "llroundl", scope: !199, file: !199, line: 506, type: !444, isLocal: false, isDefinition: false, flags: DIFlagPrototyped, isOptimized: false)
!448 = !DIImportedEntity(tag: DW_TAG_imported_declaration, scope: !5, entity: !449, line: 512)
!449 = !DISubprogram(name: "log1pl", scope: !199, file: !199, line: 400, type: !205, isLocal: false, isDefinition: false, flags: DIFlagPrototyped, isOptimized: false)
!450 = !DIImportedEntity(tag: DW_TAG_imported_declaration, scope: !5, entity: !451, line: 513)
!451 = !DISubprogram(name: "log2l", scope: !199, file: !199, line: 396, type: !205, isLocal: false, isDefinition: false, flags: DIFlagPrototyped, isOptimized: false)
!452 = !DIImportedEntity(tag: DW_TAG_imported_declaration, scope: !5, entity: !453, line: 514)
!453 = !DISubprogram(name: "logbl", scope: !199, file: !199, line: 404, type: !205, isLocal: false, isDefinition: false, flags: DIFlagPrototyped, isOptimized: false)
!454 = !DIImportedEntity(tag: DW_TAG_imported_declaration, scope: !5, entity: !455, line: 515)
!455 = !DISubprogram(name: "lrintl", scope: !199, file: !199, line: 487, type: !456, isLocal: false, isDefinition: false, flags: DIFlagPrototyped, isOptimized: false)
!456 = !DISubroutineType(types: !457)
!457 = !{!10, !17}
!458 = !DIImportedEntity(tag: DW_TAG_imported_declaration, scope: !5, entity: !459, line: 516)
!459 = !DISubprogram(name: "lroundl", scope: !199, file: !199, line: 495, type: !456, isLocal: false, isDefinition: false, flags: DIFlagPrototyped, isOptimized: false)
!460 = !DIImportedEntity(tag: DW_TAG_imported_declaration, scope: !5, entity: !461, line: 517)
!461 = !DISubprogram(name: "nanl", scope: !199, file: !199, line: 531, type: !462, isLocal: false, isDefinition: false, flags: DIFlagPrototyped, isOptimized: false)
!462 = !DISubroutineType(types: !463)
!463 = !{!17, !45}
!464 = !DIImportedEntity(tag: DW_TAG_imported_declaration, scope: !5, entity: !465, line: 518)
!465 = !DISubprogram(name: "nearbyintl", scope: !199, file: !199, line: 479, type: !205, isLocal: false, isDefinition: false, flags: DIFlagPrototyped, isOptimized: false)
!466 = !DIImportedEntity(tag: DW_TAG_imported_declaration, scope: !5, entity: !467, line: 519)
!467 = !DISubprogram(name: "nextafterl", scope: !199, file: !199, line: 535, type: !364, isLocal: false, isDefinition: false, flags: DIFlagPrototyped, isOptimized: false)
!468 = !DIImportedEntity(tag: DW_TAG_imported_declaration, scope: !5, entity: !469, line: 520)
!469 = !DISubprogram(name: "nexttowardl", scope: !199, file: !199, line: 539, type: !364, isLocal: false, isDefinition: false, flags: DIFlagPrototyped, isOptimized: false)
!470 = !DIImportedEntity(tag: DW_TAG_imported_declaration, scope: !5, entity: !471, line: 521)
!471 = !DISubprogram(name: "remainderl", scope: !199, file: !199, line: 519, type: !364, isLocal: false, isDefinition: false, flags: DIFlagPrototyped, isOptimized: false)
!472 = !DIImportedEntity(tag: DW_TAG_imported_declaration, scope: !5, entity: !473, line: 522)
!473 = !DISubprogram(name: "remquol", scope: !199, file: !199, line: 523, type: !474, isLocal: false, isDefinition: false, flags: DIFlagPrototyped, isOptimized: false)
!474 = !DISubroutineType(types: !475)
!475 = !{!17, !17, !17, !237}
!476 = !DIImportedEntity(tag: DW_TAG_imported_declaration, scope: !5, entity: !477, line: 523)
!477 = !DISubprogram(name: "rintl", scope: !199, file: !199, line: 483, type: !205, isLocal: false, isDefinition: false, flags: DIFlagPrototyped, isOptimized: false)
!478 = !DIImportedEntity(tag: DW_TAG_imported_declaration, scope: !5, entity: !479, line: 524)
!479 = !DISubprogram(name: "roundl", scope: !199, file: !199, line: 491, type: !205, isLocal: false, isDefinition: false, flags: DIFlagPrototyped, isOptimized: false)
!480 = !DIImportedEntity(tag: DW_TAG_imported_declaration, scope: !5, entity: !481, line: 525)
!481 = !DISubprogram(name: "scalblnl", scope: !199, file: !199, line: 428, type: !482, isLocal: false, isDefinition: false, flags: DIFlagPrototyped, isOptimized: false)
!482 = !DISubroutineType(types: !483)
!483 = !{!17, !17, !10}
!484 = !DIImportedEntity(tag: DW_TAG_imported_declaration, scope: !5, entity: !485, line: 526)
!485 = !DISubprogram(name: "scalbnl", scope: !199, file: !199, line: 424, type: !386, isLocal: false, isDefinition: false, flags: DIFlagPrototyped, isOptimized: false)
!486 = !DIImportedEntity(tag: DW_TAG_imported_declaration, scope: !5, entity: !487, line: 527)
!487 = !DISubprogram(name: "tgammal", scope: !199, file: !199, line: 467, type: !205, isLocal: false, isDefinition: false, flags: DIFlagPrototyped, isOptimized: false)
!488 = !DIImportedEntity(tag: DW_TAG_imported_declaration, scope: !5, entity: !489, line: 528)
!489 = !DISubprogram(name: "truncl", scope: !199, file: !199, line: 511, type: !205, isLocal: false, isDefinition: false, flags: DIFlagPrototyped, isOptimized: false)
!490 = !DIImportedEntity(tag: DW_TAG_imported_declaration, scope: !5, entity: !491, line: 153)
!491 = !DIDerivedType(tag: DW_TAG_typedef, name: "int8_t", file: !492, line: 30, baseType: !493)
!492 = !DIFile(filename: "/usr/include/sys/_types/_int8_t.h", directory: "/Users/hugh2/git-local/pub-prototyping/llvm/try_debug")
!493 = !DIBasicType(name: "signed char", size: 8, encoding: DW_ATE_signed_char)
!494 = !DIImportedEntity(tag: DW_TAG_imported_declaration, scope: !5, entity: !495, line: 154)
!495 = !DIDerivedType(tag: DW_TAG_typedef, name: "int16_t", file: !496, line: 30, baseType: !497)
!496 = !DIFile(filename: "/usr/include/sys/_types/_int16_t.h", directory: "/Users/hugh2/git-local/pub-prototyping/llvm/try_debug")
!497 = !DIBasicType(name: "short", size: 16, encoding: DW_ATE_signed)
!498 = !DIImportedEntity(tag: DW_TAG_imported_declaration, scope: !5, entity: !499, line: 155)
!499 = !DIDerivedType(tag: DW_TAG_typedef, name: "int32_t", file: !500, line: 30, baseType: !25)
!500 = !DIFile(filename: "/usr/include/sys/_types/_int32_t.h", directory: "/Users/hugh2/git-local/pub-prototyping/llvm/try_debug")
!501 = !DIImportedEntity(tag: DW_TAG_imported_declaration, scope: !5, entity: !502, line: 156)
!502 = !DIDerivedType(tag: DW_TAG_typedef, name: "int64_t", file: !503, line: 30, baseType: !38)
!503 = !DIFile(filename: "/usr/include/sys/_types/_int64_t.h", directory: "/Users/hugh2/git-local/pub-prototyping/llvm/try_debug")
!504 = !DIImportedEntity(tag: DW_TAG_imported_declaration, scope: !5, entity: !505, line: 158)
!505 = !DIDerivedType(tag: DW_TAG_typedef, name: "uint8_t", file: !506, line: 31, baseType: !507)
!506 = !DIFile(filename: "/usr/include/_types/_uint8_t.h", directory: "/Users/hugh2/git-local/pub-prototyping/llvm/try_debug")
!507 = !DIBasicType(name: "unsigned char", size: 8, encoding: DW_ATE_unsigned_char)
!508 = !DIImportedEntity(tag: DW_TAG_imported_declaration, scope: !5, entity: !509, line: 159)
!509 = !DIDerivedType(tag: DW_TAG_typedef, name: "uint16_t", file: !510, line: 31, baseType: !511)
!510 = !DIFile(filename: "/usr/include/_types/_uint16_t.h", directory: "/Users/hugh2/git-local/pub-prototyping/llvm/try_debug")
!511 = !DIBasicType(name: "unsigned short", size: 16, encoding: DW_ATE_unsigned)
!512 = !DIImportedEntity(tag: DW_TAG_imported_declaration, scope: !5, entity: !513, line: 160)
!513 = !DIDerivedType(tag: DW_TAG_typedef, name: "uint32_t", file: !514, line: 31, baseType: !100)
!514 = !DIFile(filename: "/usr/include/_types/_uint32_t.h", directory: "/Users/hugh2/git-local/pub-prototyping/llvm/try_debug")
!515 = !DIImportedEntity(tag: DW_TAG_imported_declaration, scope: !5, entity: !516, line: 161)
!516 = !DIDerivedType(tag: DW_TAG_typedef, name: "uint64_t", file: !517, line: 31, baseType: !91)
!517 = !DIFile(filename: "/usr/include/_types/_uint64_t.h", directory: "/Users/hugh2/git-local/pub-prototyping/llvm/try_debug")
!518 = !DIImportedEntity(tag: DW_TAG_imported_declaration, scope: !5, entity: !519, line: 163)
!519 = !DIDerivedType(tag: DW_TAG_typedef, name: "int_least8_t", file: !520, line: 29, baseType: !491)
!520 = !DIFile(filename: "/usr/include/stdint.h", directory: "/Users/hugh2/git-local/pub-prototyping/llvm/try_debug")
!521 = !DIImportedEntity(tag: DW_TAG_imported_declaration, scope: !5, entity: !522, line: 164)
!522 = !DIDerivedType(tag: DW_TAG_typedef, name: "int_least16_t", file: !520, line: 30, baseType: !495)
!523 = !DIImportedEntity(tag: DW_TAG_imported_declaration, scope: !5, entity: !524, line: 165)
!524 = !DIDerivedType(tag: DW_TAG_typedef, name: "int_least32_t", file: !520, line: 31, baseType: !499)
!525 = !DIImportedEntity(tag: DW_TAG_imported_declaration, scope: !5, entity: !526, line: 166)
!526 = !DIDerivedType(tag: DW_TAG_typedef, name: "int_least64_t", file: !520, line: 32, baseType: !502)
!527 = !DIImportedEntity(tag: DW_TAG_imported_declaration, scope: !5, entity: !528, line: 168)
!528 = !DIDerivedType(tag: DW_TAG_typedef, name: "uint_least8_t", file: !520, line: 33, baseType: !505)
!529 = !DIImportedEntity(tag: DW_TAG_imported_declaration, scope: !5, entity: !530, line: 169)
!530 = !DIDerivedType(tag: DW_TAG_typedef, name: "uint_least16_t", file: !520, line: 34, baseType: !509)
!531 = !DIImportedEntity(tag: DW_TAG_imported_declaration, scope: !5, entity: !532, line: 170)
!532 = !DIDerivedType(tag: DW_TAG_typedef, name: "uint_least32_t", file: !520, line: 35, baseType: !513)
!533 = !DIImportedEntity(tag: DW_TAG_imported_declaration, scope: !5, entity: !534, line: 171)
!534 = !DIDerivedType(tag: DW_TAG_typedef, name: "uint_least64_t", file: !520, line: 36, baseType: !516)
!535 = !DIImportedEntity(tag: DW_TAG_imported_declaration, scope: !5, entity: !536, line: 173)
!536 = !DIDerivedType(tag: DW_TAG_typedef, name: "int_fast8_t", file: !520, line: 40, baseType: !491)
!537 = !DIImportedEntity(tag: DW_TAG_imported_declaration, scope: !5, entity: !538, line: 174)
!538 = !DIDerivedType(tag: DW_TAG_typedef, name: "int_fast16_t", file: !520, line: 41, baseType: !495)
!539 = !DIImportedEntity(tag: DW_TAG_imported_declaration, scope: !5, entity: !540, line: 175)
!540 = !DIDerivedType(tag: DW_TAG_typedef, name: "int_fast32_t", file: !520, line: 42, baseType: !499)
!541 = !DIImportedEntity(tag: DW_TAG_imported_declaration, scope: !5, entity: !542, line: 176)
!542 = !DIDerivedType(tag: DW_TAG_typedef, name: "int_fast64_t", file: !520, line: 43, baseType: !502)
!543 = !DIImportedEntity(tag: DW_TAG_imported_declaration, scope: !5, entity: !544, line: 178)
!544 = !DIDerivedType(tag: DW_TAG_typedef, name: "uint_fast8_t", file: !520, line: 44, baseType: !505)
!545 = !DIImportedEntity(tag: DW_TAG_imported_declaration, scope: !5, entity: !546, line: 179)
!546 = !DIDerivedType(tag: DW_TAG_typedef, name: "uint_fast16_t", file: !520, line: 45, baseType: !509)
!547 = !DIImportedEntity(tag: DW_TAG_imported_declaration, scope: !5, entity: !548, line: 180)
!548 = !DIDerivedType(tag: DW_TAG_typedef, name: "uint_fast32_t", file: !520, line: 46, baseType: !513)
!549 = !DIImportedEntity(tag: DW_TAG_imported_declaration, scope: !5, entity: !550, line: 181)
!550 = !DIDerivedType(tag: DW_TAG_typedef, name: "uint_fast64_t", file: !520, line: 47, baseType: !516)
!551 = !DIImportedEntity(tag: DW_TAG_imported_declaration, scope: !5, entity: !552, line: 183)
!552 = !DIDerivedType(tag: DW_TAG_typedef, name: "intptr_t", file: !553, line: 30, baseType: !554)
!553 = !DIFile(filename: "/usr/include/sys/_types/_intptr_t.h", directory: "/Users/hugh2/git-local/pub-prototyping/llvm/try_debug")
!554 = !DIDerivedType(tag: DW_TAG_typedef, name: "__darwin_intptr_t", file: !555, line: 49, baseType: !10)
!555 = !DIFile(filename: "/usr/include/i386/_types.h", directory: "/Users/hugh2/git-local/pub-prototyping/llvm/try_debug")
!556 = !DIImportedEntity(tag: DW_TAG_imported_declaration, scope: !5, entity: !557, line: 184)
!557 = !DIDerivedType(tag: DW_TAG_typedef, name: "uintptr_t", file: !558, line: 30, baseType: !13)
!558 = !DIFile(filename: "/usr/include/sys/_types/_uintptr_t.h", directory: "/Users/hugh2/git-local/pub-prototyping/llvm/try_debug")
!559 = !DIImportedEntity(tag: DW_TAG_imported_declaration, scope: !5, entity: !560, line: 186)
!560 = !DIDerivedType(tag: DW_TAG_typedef, name: "intmax_t", file: !561, line: 32, baseType: !10)
!561 = !DIFile(filename: "/usr/include/_types/_intmax_t.h", directory: "/Users/hugh2/git-local/pub-prototyping/llvm/try_debug")
!562 = !DIImportedEntity(tag: DW_TAG_imported_declaration, scope: !5, entity: !563, line: 187)
!563 = !DIDerivedType(tag: DW_TAG_typedef, name: "uintmax_t", file: !564, line: 32, baseType: !13)
!564 = !DIFile(filename: "/usr/include/_types/_uintmax_t.h", directory: "/Users/hugh2/git-local/pub-prototyping/llvm/try_debug")
!565 = !DIImportedEntity(tag: DW_TAG_imported_declaration, scope: !5, entity: !12, line: 69)
!566 = !DIImportedEntity(tag: DW_TAG_imported_declaration, scope: !5, entity: !567, line: 70)
!567 = !DISubprogram(name: "memcpy", scope: !568, file: !568, line: 72, type: !569, isLocal: false, isDefinition: false, flags: DIFlagPrototyped, isOptimized: false)
!568 = !DIFile(filename: "/usr/include/string.h", directory: "/Users/hugh2/git-local/pub-prototyping/llvm/try_debug")
!569 = !DISubroutineType(types: !570)
!570 = !{!105, !105, !143, !12}
!571 = !DIImportedEntity(tag: DW_TAG_imported_declaration, scope: !5, entity: !572, line: 71)
!572 = !DISubprogram(name: "memmove", scope: !568, file: !568, line: 73, type: !569, isLocal: false, isDefinition: false, flags: DIFlagPrototyped, isOptimized: false)
!573 = !DIImportedEntity(tag: DW_TAG_imported_declaration, scope: !5, entity: !574, line: 72)
!574 = !DISubprogram(name: "strcpy", scope: !568, file: !568, line: 79, type: !575, isLocal: false, isDefinition: false, flags: DIFlagPrototyped, isOptimized: false)
!575 = !DISubroutineType(types: !576)
!576 = !{!65, !65, !45}
!577 = !DIImportedEntity(tag: DW_TAG_imported_declaration, scope: !5, entity: !578, line: 73)
!578 = !DISubprogram(name: "strncpy", scope: !568, file: !568, line: 85, type: !579, isLocal: false, isDefinition: false, flags: DIFlagPrototyped, isOptimized: false)
!579 = !DISubroutineType(types: !580)
!580 = !{!65, !65, !45, !12}
!581 = !DIImportedEntity(tag: DW_TAG_imported_declaration, scope: !5, entity: !582, line: 74)
!582 = !DISubprogram(name: "strcat", scope: !568, file: !568, line: 75, type: !575, isLocal: false, isDefinition: false, flags: DIFlagPrototyped, isOptimized: false)
!583 = !DIImportedEntity(tag: DW_TAG_imported_declaration, scope: !5, entity: !584, line: 75)
!584 = !DISubprogram(name: "strncat", scope: !568, file: !568, line: 83, type: !579, isLocal: false, isDefinition: false, flags: DIFlagPrototyped, isOptimized: false)
!585 = !DIImportedEntity(tag: DW_TAG_imported_declaration, scope: !5, entity: !586, line: 76)
!586 = !DISubprogram(name: "memcmp", scope: !568, file: !568, line: 71, type: !587, isLocal: false, isDefinition: false, flags: DIFlagPrototyped, isOptimized: false)
!587 = !DISubroutineType(types: !588)
!588 = !{!25, !143, !143, !12}
!589 = !DIImportedEntity(tag: DW_TAG_imported_declaration, scope: !5, entity: !590, line: 77)
!590 = !DISubprogram(name: "strcmp", scope: !568, file: !568, line: 77, type: !591, isLocal: false, isDefinition: false, flags: DIFlagPrototyped, isOptimized: false)
!591 = !DISubroutineType(types: !592)
!592 = !{!25, !45, !45}
!593 = !DIImportedEntity(tag: DW_TAG_imported_declaration, scope: !5, entity: !594, line: 78)
!594 = !DISubprogram(name: "strncmp", scope: !568, file: !568, line: 84, type: !595, isLocal: false, isDefinition: false, flags: DIFlagPrototyped, isOptimized: false)
!595 = !DISubroutineType(types: !596)
!596 = !{!25, !45, !45, !12}
!597 = !DIImportedEntity(tag: DW_TAG_imported_declaration, scope: !5, entity: !598, line: 79)
!598 = !DISubprogram(name: "strcoll", scope: !568, file: !568, line: 78, type: !591, isLocal: false, isDefinition: false, flags: DIFlagPrototyped, isOptimized: false)
!599 = !DIImportedEntity(tag: DW_TAG_imported_declaration, scope: !5, entity: !600, line: 80)
!600 = !DISubprogram(name: "strxfrm", scope: !568, file: !568, line: 91, type: !601, isLocal: false, isDefinition: false, flags: DIFlagPrototyped, isOptimized: false)
!601 = !DISubroutineType(types: !602)
!602 = !{!12, !65, !45, !12}
!603 = !DIImportedEntity(tag: DW_TAG_imported_declaration, scope: !5, entity: !604, line: 81)
!604 = !DISubprogram(name: "memchr", linkageName: "_Z6memchrUa9enable_ifIXLb1EEEPvim", scope: !605, file: !605, line: 99, type: !606, isLocal: false, isDefinition: false, flags: DIFlagPrototyped, isOptimized: false)
!605 = !DIFile(filename: "/usr/local/opt/llvm-4.0/bin/../include/c++/v1/string.h", directory: "/Users/hugh2/git-local/pub-prototyping/llvm/try_debug")
!606 = !DISubroutineType(types: !607)
!607 = !{!105, !105, !25, !12}
!608 = !DIImportedEntity(tag: DW_TAG_imported_declaration, scope: !5, entity: !609, line: 82)
!609 = !DISubprogram(name: "strchr", linkageName: "_Z6strchrUa9enable_ifIXLb1EEEPci", scope: !605, file: !605, line: 78, type: !610, isLocal: false, isDefinition: false, flags: DIFlagPrototyped, isOptimized: false)
!610 = !DISubroutineType(types: !611)
!611 = !{!65, !65, !25}
!612 = !DIImportedEntity(tag: DW_TAG_imported_declaration, scope: !5, entity: !613, line: 83)
!613 = !DISubprogram(name: "strcspn", scope: !568, file: !568, line: 80, type: !614, isLocal: false, isDefinition: false, flags: DIFlagPrototyped, isOptimized: false)
!614 = !DISubroutineType(types: !615)
!615 = !{!12, !45, !45}
!616 = !DIImportedEntity(tag: DW_TAG_imported_declaration, scope: !5, entity: !617, line: 84)
!617 = !DISubprogram(name: "strpbrk", linkageName: "_Z7strpbrkUa9enable_ifIXLb1EEEPcPKc", scope: !605, file: !605, line: 85, type: !575, isLocal: false, isDefinition: false, flags: DIFlagPrototyped, isOptimized: false)
!618 = !DIImportedEntity(tag: DW_TAG_imported_declaration, scope: !5, entity: !619, line: 85)
!619 = !DISubprogram(name: "strrchr", linkageName: "_Z7strrchrUa9enable_ifIXLb1EEEPci", scope: !605, file: !605, line: 92, type: !610, isLocal: false, isDefinition: false, flags: DIFlagPrototyped, isOptimized: false)
!620 = !DIImportedEntity(tag: DW_TAG_imported_declaration, scope: !5, entity: !621, line: 86)
!621 = !DISubprogram(name: "strspn", scope: !568, file: !568, line: 88, type: !614, isLocal: false, isDefinition: false, flags: DIFlagPrototyped, isOptimized: false)
!622 = !DIImportedEntity(tag: DW_TAG_imported_declaration, scope: !5, entity: !623, line: 87)
!623 = !DISubprogram(name: "strstr", linkageName: "_Z6strstrUa9enable_ifIXLb1EEEPcPKc", scope: !605, file: !605, line: 106, type: !575, isLocal: false, isDefinition: false, flags: DIFlagPrototyped, isOptimized: false)
!624 = !DIImportedEntity(tag: DW_TAG_imported_declaration, scope: !5, entity: !625, line: 89)
!625 = !DISubprogram(name: "strtok", scope: !568, file: !568, line: 90, type: !575, isLocal: false, isDefinition: false, flags: DIFlagPrototyped, isOptimized: false)
!626 = !DIImportedEntity(tag: DW_TAG_imported_declaration, scope: !5, entity: !627, line: 91)
!627 = !DISubprogram(name: "memset", scope: !568, file: !568, line: 74, type: !606, isLocal: false, isDefinition: false, flags: DIFlagPrototyped, isOptimized: false)
!628 = !DIImportedEntity(tag: DW_TAG_imported_declaration, scope: !5, entity: !629, line: 92)
!629 = !DISubprogram(name: "strerror", linkageName: "\01_strerror", scope: !568, file: !568, line: 81, type: !630, isLocal: false, isDefinition: false, flags: DIFlagPrototyped, isOptimized: false)
!630 = !DISubroutineType(types: !631)
!631 = !{!65, !25}
!632 = !DIImportedEntity(tag: DW_TAG_imported_declaration, scope: !5, entity: !633, line: 93)
!633 = !DISubprogram(name: "strlen", scope: !568, file: !568, line: 82, type: !634, isLocal: false, isDefinition: false, flags: DIFlagPrototyped, isOptimized: false)
!634 = !DISubroutineType(types: !635)
!635 = !{!12, !45}
!636 = !DIImportedEntity(tag: DW_TAG_imported_declaration, scope: !5, entity: !637, line: 111)
!637 = !DIDerivedType(tag: DW_TAG_typedef, name: "FILE", file: !638, line: 153, baseType: !639)
!638 = !DIFile(filename: "/usr/include/stdio.h", directory: "/Users/hugh2/git-local/pub-prototyping/llvm/try_debug")
!639 = distinct !DICompositeType(tag: DW_TAG_structure_type, name: "__sFILE", file: !638, line: 122, size: 1216, elements: !640, identifier: "_ZTS7__sFILE")
!640 = !{!641, !643, !644, !645, !646, !647, !652, !653, !654, !658, !662, !670, !674, !675, !678, !679, !683, !687, !688, !689}
!641 = !DIDerivedType(tag: DW_TAG_member, name: "_p", scope: !639, file: !638, line: 123, baseType: !642, size: 64)
!642 = !DIDerivedType(tag: DW_TAG_pointer_type, baseType: !507, size: 64)
!643 = !DIDerivedType(tag: DW_TAG_member, name: "_r", scope: !639, file: !638, line: 124, baseType: !25, size: 32, offset: 64)
!644 = !DIDerivedType(tag: DW_TAG_member, name: "_w", scope: !639, file: !638, line: 125, baseType: !25, size: 32, offset: 96)
!645 = !DIDerivedType(tag: DW_TAG_member, name: "_flags", scope: !639, file: !638, line: 126, baseType: !497, size: 16, offset: 128)
!646 = !DIDerivedType(tag: DW_TAG_member, name: "_file", scope: !639, file: !638, line: 127, baseType: !497, size: 16, offset: 144)
!647 = !DIDerivedType(tag: DW_TAG_member, name: "_bf", scope: !639, file: !638, line: 128, baseType: !648, size: 128, offset: 192)
!648 = distinct !DICompositeType(tag: DW_TAG_structure_type, name: "__sbuf", file: !638, line: 88, size: 128, elements: !649, identifier: "_ZTS6__sbuf")
!649 = !{!650, !651}
!650 = !DIDerivedType(tag: DW_TAG_member, name: "_base", scope: !648, file: !638, line: 89, baseType: !642, size: 64)
!651 = !DIDerivedType(tag: DW_TAG_member, name: "_size", scope: !648, file: !638, line: 90, baseType: !25, size: 32, offset: 64)
!652 = !DIDerivedType(tag: DW_TAG_member, name: "_lbfsize", scope: !639, file: !638, line: 129, baseType: !25, size: 32, offset: 320)
!653 = !DIDerivedType(tag: DW_TAG_member, name: "_cookie", scope: !639, file: !638, line: 132, baseType: !105, size: 64, offset: 384)
!654 = !DIDerivedType(tag: DW_TAG_member, name: "_close", scope: !639, file: !638, line: 133, baseType: !655, size: 64, offset: 448)
!655 = !DIDerivedType(tag: DW_TAG_pointer_type, baseType: !656, size: 64)
!656 = !DISubroutineType(types: !657)
!657 = !{!25, !105}
!658 = !DIDerivedType(tag: DW_TAG_member, name: "_read", scope: !639, file: !638, line: 134, baseType: !659, size: 64, offset: 512)
!659 = !DIDerivedType(tag: DW_TAG_pointer_type, baseType: !660, size: 64)
!660 = !DISubroutineType(types: !661)
!661 = !{!25, !105, !65, !25}
!662 = !DIDerivedType(tag: DW_TAG_member, name: "_seek", scope: !639, file: !638, line: 135, baseType: !663, size: 64, offset: 576)
!663 = !DIDerivedType(tag: DW_TAG_pointer_type, baseType: !664, size: 64)
!664 = !DISubroutineType(types: !665)
!665 = !{!666, !105, !666, !25}
!666 = !DIDerivedType(tag: DW_TAG_typedef, name: "fpos_t", file: !638, line: 77, baseType: !667)
!667 = !DIDerivedType(tag: DW_TAG_typedef, name: "__darwin_off_t", file: !668, line: 71, baseType: !669)
!668 = !DIFile(filename: "/usr/include/sys/_types.h", directory: "/Users/hugh2/git-local/pub-prototyping/llvm/try_debug")
!669 = !DIDerivedType(tag: DW_TAG_typedef, name: "__int64_t", file: !555, line: 46, baseType: !38)
!670 = !DIDerivedType(tag: DW_TAG_member, name: "_write", scope: !639, file: !638, line: 136, baseType: !671, size: 64, offset: 640)
!671 = !DIDerivedType(tag: DW_TAG_pointer_type, baseType: !672, size: 64)
!672 = !DISubroutineType(types: !673)
!673 = !{!25, !105, !45, !25}
!674 = !DIDerivedType(tag: DW_TAG_member, name: "_ub", scope: !639, file: !638, line: 139, baseType: !648, size: 128, offset: 704)
!675 = !DIDerivedType(tag: DW_TAG_member, name: "_extra", scope: !639, file: !638, line: 140, baseType: !676, size: 64, offset: 832)
!676 = !DIDerivedType(tag: DW_TAG_pointer_type, baseType: !677, size: 64)
!677 = !DICompositeType(tag: DW_TAG_structure_type, name: "__sFILEX", file: !638, line: 94, flags: DIFlagFwdDecl, identifier: "_ZTS8__sFILEX")
!678 = !DIDerivedType(tag: DW_TAG_member, name: "_ur", scope: !639, file: !638, line: 141, baseType: !25, size: 32, offset: 896)
!679 = !DIDerivedType(tag: DW_TAG_member, name: "_ubuf", scope: !639, file: !638, line: 144, baseType: !680, size: 24, offset: 928)
!680 = !DICompositeType(tag: DW_TAG_array_type, baseType: !507, size: 24, elements: !681)
!681 = !{!682}
!682 = !DISubrange(count: 3)
!683 = !DIDerivedType(tag: DW_TAG_member, name: "_nbuf", scope: !639, file: !638, line: 145, baseType: !684, size: 8, offset: 952)
!684 = !DICompositeType(tag: DW_TAG_array_type, baseType: !507, size: 8, elements: !685)
!685 = !{!686}
!686 = !DISubrange(count: 1)
!687 = !DIDerivedType(tag: DW_TAG_member, name: "_lb", scope: !639, file: !638, line: 148, baseType: !648, size: 128, offset: 960)
!688 = !DIDerivedType(tag: DW_TAG_member, name: "_blksize", scope: !639, file: !638, line: 151, baseType: !25, size: 32, offset: 1088)
!689 = !DIDerivedType(tag: DW_TAG_member, name: "_offset", scope: !639, file: !638, line: 152, baseType: !666, size: 64, offset: 1152)
!690 = !DIImportedEntity(tag: DW_TAG_imported_declaration, scope: !5, entity: !666, line: 112)
!691 = !DIImportedEntity(tag: DW_TAG_imported_declaration, scope: !5, entity: !12, line: 113)
!692 = !DIImportedEntity(tag: DW_TAG_imported_declaration, scope: !5, entity: !693, line: 115)
!693 = !DISubprogram(name: "fclose", scope: !638, file: !638, line: 232, type: !694, isLocal: false, isDefinition: false, flags: DIFlagPrototyped, isOptimized: false)
!694 = !DISubroutineType(types: !695)
!695 = !{!25, !696}
!696 = !DIDerivedType(tag: DW_TAG_pointer_type, baseType: !637, size: 64)
!697 = !DIImportedEntity(tag: DW_TAG_imported_declaration, scope: !5, entity: !698, line: 116)
!698 = !DISubprogram(name: "fflush", scope: !638, file: !638, line: 235, type: !694, isLocal: false, isDefinition: false, flags: DIFlagPrototyped, isOptimized: false)
!699 = !DIImportedEntity(tag: DW_TAG_imported_declaration, scope: !5, entity: !700, line: 117)
!700 = !DISubprogram(name: "setbuf", scope: !638, file: !638, line: 267, type: !701, isLocal: false, isDefinition: false, flags: DIFlagPrototyped, isOptimized: false)
!701 = !DISubroutineType(types: !702)
!702 = !{null, !696, !65}
!703 = !DIImportedEntity(tag: DW_TAG_imported_declaration, scope: !5, entity: !704, line: 118)
!704 = !DISubprogram(name: "setvbuf", scope: !638, file: !638, line: 268, type: !705, isLocal: false, isDefinition: false, flags: DIFlagPrototyped, isOptimized: false)
!705 = !DISubroutineType(types: !706)
!706 = !{!25, !696, !65, !25, !12}
!707 = !DIImportedEntity(tag: DW_TAG_imported_declaration, scope: !5, entity: !708, line: 119)
!708 = !DISubprogram(name: "fprintf", scope: !638, file: !638, line: 244, type: !709, isLocal: false, isDefinition: false, flags: DIFlagPrototyped, isOptimized: false)
!709 = !DISubroutineType(types: !710)
!710 = !{!25, !696, !45, null}
!711 = !DIImportedEntity(tag: DW_TAG_imported_declaration, scope: !5, entity: !712, line: 120)
!712 = !DISubprogram(name: "fscanf", scope: !638, file: !638, line: 250, type: !709, isLocal: false, isDefinition: false, flags: DIFlagPrototyped, isOptimized: false)
!713 = !DIImportedEntity(tag: DW_TAG_imported_declaration, scope: !5, entity: !714, line: 121)
!714 = !DISubprogram(name: "snprintf", scope: !638, file: !638, line: 427, type: !715, isLocal: false, isDefinition: false, flags: DIFlagPrototyped, isOptimized: false)
!715 = !DISubroutineType(types: !716)
!716 = !{!25, !65, !12, !45, null}
!717 = !DIImportedEntity(tag: DW_TAG_imported_declaration, scope: !5, entity: !718, line: 122)
!718 = !DISubprogram(name: "sprintf", scope: !638, file: !638, line: 269, type: !719, isLocal: false, isDefinition: false, flags: DIFlagPrototyped, isOptimized: false)
!719 = !DISubroutineType(types: !720)
!720 = !{!25, !65, !45, null}
!721 = !DIImportedEntity(tag: DW_TAG_imported_declaration, scope: !5, entity: !722, line: 123)
!722 = !DISubprogram(name: "sscanf", scope: !638, file: !638, line: 270, type: !723, isLocal: false, isDefinition: false, flags: DIFlagPrototyped, isOptimized: false)
!723 = !DISubroutineType(types: !724)
!724 = !{!25, !45, !45, null}
!725 = !DIImportedEntity(tag: DW_TAG_imported_declaration, scope: !5, entity: !726, line: 124)
!726 = !DISubprogram(name: "vfprintf", scope: !638, file: !638, line: 279, type: !727, isLocal: false, isDefinition: false, flags: DIFlagPrototyped, isOptimized: false)
!727 = !DISubroutineType(types: !728)
!728 = !{!25, !696, !45, !729}
!729 = !DIDerivedType(tag: DW_TAG_pointer_type, baseType: !730, size: 64)
!730 = distinct !DICompositeType(tag: DW_TAG_structure_type, name: "__va_list_tag", file: !1, size: 192, elements: !731, identifier: "_ZTS13__va_list_tag")
!731 = !{!732, !733, !734, !735}
!732 = !DIDerivedType(tag: DW_TAG_member, name: "gp_offset", scope: !730, file: !1, baseType: !100, size: 32)
!733 = !DIDerivedType(tag: DW_TAG_member, name: "fp_offset", scope: !730, file: !1, baseType: !100, size: 32, offset: 32)
!734 = !DIDerivedType(tag: DW_TAG_member, name: "overflow_arg_area", scope: !730, file: !1, baseType: !105, size: 64, offset: 64)
!735 = !DIDerivedType(tag: DW_TAG_member, name: "reg_save_area", scope: !730, file: !1, baseType: !105, size: 64, offset: 128)
!736 = !DIImportedEntity(tag: DW_TAG_imported_declaration, scope: !5, entity: !737, line: 125)
!737 = !DISubprogram(name: "vfscanf", scope: !638, file: !638, line: 428, type: !727, isLocal: false, isDefinition: false, flags: DIFlagPrototyped, isOptimized: false)
!738 = !DIImportedEntity(tag: DW_TAG_imported_declaration, scope: !5, entity: !739, line: 126)
!739 = !DISubprogram(name: "vsscanf", scope: !638, file: !638, line: 431, type: !740, isLocal: false, isDefinition: false, flags: DIFlagPrototyped, isOptimized: false)
!740 = !DISubroutineType(types: !741)
!741 = !{!25, !45, !45, !729}
!742 = !DIImportedEntity(tag: DW_TAG_imported_declaration, scope: !5, entity: !743, line: 127)
!743 = !DISubprogram(name: "vsnprintf", scope: !638, file: !638, line: 430, type: !744, isLocal: false, isDefinition: false, flags: DIFlagPrototyped, isOptimized: false)
!744 = !DISubroutineType(types: !745)
!745 = !{!25, !65, !12, !45, !729}
!746 = !DIImportedEntity(tag: DW_TAG_imported_declaration, scope: !5, entity: !747, line: 128)
!747 = !DISubprogram(name: "vsprintf", scope: !638, file: !638, line: 281, type: !748, isLocal: false, isDefinition: false, flags: DIFlagPrototyped, isOptimized: false)
!748 = !DISubroutineType(types: !749)
!749 = !{!25, !65, !45, !729}
!750 = !DIImportedEntity(tag: DW_TAG_imported_declaration, scope: !5, entity: !751, line: 129)
!751 = !DISubprogram(name: "fgetc", scope: !638, file: !638, line: 236, type: !694, isLocal: false, isDefinition: false, flags: DIFlagPrototyped, isOptimized: false)
!752 = !DIImportedEntity(tag: DW_TAG_imported_declaration, scope: !5, entity: !753, line: 130)
!753 = !DISubprogram(name: "fgets", scope: !638, file: !638, line: 238, type: !754, isLocal: false, isDefinition: false, flags: DIFlagPrototyped, isOptimized: false)
!754 = !DISubroutineType(types: !755)
!755 = !{!65, !65, !25, !696}
!756 = !DIImportedEntity(tag: DW_TAG_imported_declaration, scope: !5, entity: !757, line: 131)
!757 = !DISubprogram(name: "fputc", scope: !638, file: !638, line: 245, type: !758, isLocal: false, isDefinition: false, flags: DIFlagPrototyped, isOptimized: false)
!758 = !DISubroutineType(types: !759)
!759 = !{!25, !25, !696}
!760 = !DIImportedEntity(tag: DW_TAG_imported_declaration, scope: !5, entity: !761, line: 132)
!761 = !DISubprogram(name: "fputs", linkageName: "\01_fputs", scope: !638, file: !638, line: 246, type: !762, isLocal: false, isDefinition: false, flags: DIFlagPrototyped, isOptimized: false)
!762 = !DISubroutineType(types: !763)
!763 = !{!25, !45, !696}
!764 = !DIImportedEntity(tag: DW_TAG_imported_declaration, scope: !5, entity: !765, line: 133)
!765 = !DISubprogram(name: "getc", scope: !638, file: !638, line: 255, type: !694, isLocal: false, isDefinition: false, flags: DIFlagPrototyped, isOptimized: false)
!766 = !DIImportedEntity(tag: DW_TAG_imported_declaration, scope: !5, entity: !767, line: 134)
!767 = !DISubprogram(name: "putc", scope: !638, file: !638, line: 260, type: !758, isLocal: false, isDefinition: false, flags: DIFlagPrototyped, isOptimized: false)
!768 = !DIImportedEntity(tag: DW_TAG_imported_declaration, scope: !5, entity: !769, line: 135)
!769 = !DISubprogram(name: "ungetc", scope: !638, file: !638, line: 278, type: !758, isLocal: false, isDefinition: false, flags: DIFlagPrototyped, isOptimized: false)
!770 = !DIImportedEntity(tag: DW_TAG_imported_declaration, scope: !5, entity: !771, line: 136)
!771 = !DISubprogram(name: "fread", scope: !638, file: !638, line: 247, type: !772, isLocal: false, isDefinition: false, flags: DIFlagPrototyped, isOptimized: false)
!772 = !DISubroutineType(types: !773)
!773 = !{!12, !105, !12, !12, !696}
!774 = !DIImportedEntity(tag: DW_TAG_imported_declaration, scope: !5, entity: !775, line: 137)
!775 = !DISubprogram(name: "fwrite", linkageName: "\01_fwrite", scope: !638, file: !638, line: 254, type: !776, isLocal: false, isDefinition: false, flags: DIFlagPrototyped, isOptimized: false)
!776 = !DISubroutineType(types: !777)
!777 = !{!12, !143, !12, !12, !696}
!778 = !DIImportedEntity(tag: DW_TAG_imported_declaration, scope: !5, entity: !779, line: 138)
!779 = !DISubprogram(name: "fgetpos", scope: !638, file: !638, line: 237, type: !780, isLocal: false, isDefinition: false, flags: DIFlagPrototyped, isOptimized: false)
!780 = !DISubroutineType(types: !781)
!781 = !{!25, !696, !782}
!782 = !DIDerivedType(tag: DW_TAG_pointer_type, baseType: !666, size: 64)
!783 = !DIImportedEntity(tag: DW_TAG_imported_declaration, scope: !5, entity: !784, line: 139)
!784 = !DISubprogram(name: "fseek", scope: !638, file: !638, line: 251, type: !785, isLocal: false, isDefinition: false, flags: DIFlagPrototyped, isOptimized: false)
!785 = !DISubroutineType(types: !786)
!786 = !{!25, !696, !10, !25}
!787 = !DIImportedEntity(tag: DW_TAG_imported_declaration, scope: !5, entity: !788, line: 140)
!788 = !DISubprogram(name: "fsetpos", scope: !638, file: !638, line: 252, type: !789, isLocal: false, isDefinition: false, flags: DIFlagPrototyped, isOptimized: false)
!789 = !DISubroutineType(types: !790)
!790 = !{!25, !696, !791}
!791 = !DIDerivedType(tag: DW_TAG_pointer_type, baseType: !792, size: 64)
!792 = !DIDerivedType(tag: DW_TAG_const_type, baseType: !666)
!793 = !DIImportedEntity(tag: DW_TAG_imported_declaration, scope: !5, entity: !794, line: 141)
!794 = !DISubprogram(name: "ftell", scope: !638, file: !638, line: 253, type: !795, isLocal: false, isDefinition: false, flags: DIFlagPrototyped, isOptimized: false)
!795 = !DISubroutineType(types: !796)
!796 = !{!10, !696}
!797 = !DIImportedEntity(tag: DW_TAG_imported_declaration, scope: !5, entity: !798, line: 142)
!798 = !DISubprogram(name: "rewind", scope: !638, file: !638, line: 265, type: !799, isLocal: false, isDefinition: false, flags: DIFlagPrototyped, isOptimized: false)
!799 = !DISubroutineType(types: !800)
!800 = !{null, !696}
!801 = !DIImportedEntity(tag: DW_TAG_imported_declaration, scope: !5, entity: !802, line: 143)
!802 = !DISubprogram(name: "clearerr", scope: !638, file: !638, line: 231, type: !799, isLocal: false, isDefinition: false, flags: DIFlagPrototyped, isOptimized: false)
!803 = !DIImportedEntity(tag: DW_TAG_imported_declaration, scope: !5, entity: !804, line: 144)
!804 = !DISubprogram(name: "feof", scope: !638, file: !638, line: 233, type: !694, isLocal: false, isDefinition: false, flags: DIFlagPrototyped, isOptimized: false)
!805 = !DIImportedEntity(tag: DW_TAG_imported_declaration, scope: !5, entity: !806, line: 145)
!806 = !DISubprogram(name: "ferror", scope: !638, file: !638, line: 234, type: !694, isLocal: false, isDefinition: false, flags: DIFlagPrototyped, isOptimized: false)
!807 = !DIImportedEntity(tag: DW_TAG_imported_declaration, scope: !5, entity: !808, line: 146)
!808 = !DISubprogram(name: "perror", scope: !638, file: !638, line: 258, type: !809, isLocal: false, isDefinition: false, flags: DIFlagPrototyped, isOptimized: false)
!809 = !DISubroutineType(types: !810)
!810 = !{null, !45}
!811 = !DIImportedEntity(tag: DW_TAG_imported_declaration, scope: !5, entity: !812, line: 149)
!812 = !DISubprogram(name: "fopen", linkageName: "\01_fopen", scope: !638, file: !638, line: 242, type: !813, isLocal: false, isDefinition: false, flags: DIFlagPrototyped, isOptimized: false)
!813 = !DISubroutineType(types: !814)
!814 = !{!696, !45, !45}
!815 = !DIImportedEntity(tag: DW_TAG_imported_declaration, scope: !5, entity: !816, line: 150)
!816 = !DISubprogram(name: "freopen", linkageName: "\01_freopen", scope: !638, file: !638, line: 248, type: !817, isLocal: false, isDefinition: false, flags: DIFlagPrototyped, isOptimized: false)
!817 = !DISubroutineType(types: !818)
!818 = !{!696, !45, !45, !696}
!819 = !DIImportedEntity(tag: DW_TAG_imported_declaration, scope: !5, entity: !820, line: 151)
!820 = !DISubprogram(name: "remove", scope: !638, file: !638, line: 263, type: !50, isLocal: false, isDefinition: false, flags: DIFlagPrototyped, isOptimized: false)
!821 = !DIImportedEntity(tag: DW_TAG_imported_declaration, scope: !5, entity: !822, line: 152)
!822 = !DISubprogram(name: "rename", scope: !638, file: !638, line: 264, type: !591, isLocal: false, isDefinition: false, flags: DIFlagPrototyped, isOptimized: false)
!823 = !DIImportedEntity(tag: DW_TAG_imported_declaration, scope: !5, entity: !824, line: 153)
!824 = !DISubprogram(name: "tmpfile", scope: !638, file: !638, line: 271, type: !825, isLocal: false, isDefinition: false, flags: DIFlagPrototyped, isOptimized: false)
!825 = !DISubroutineType(types: !826)
!826 = !{!696}
!827 = !DIImportedEntity(tag: DW_TAG_imported_declaration, scope: !5, entity: !828, line: 154)
!828 = !DISubprogram(name: "tmpnam", scope: !638, file: !638, line: 277, type: !829, isLocal: false, isDefinition: false, flags: DIFlagPrototyped, isOptimized: false)
!829 = !DISubroutineType(types: !830)
!830 = !{!65, !65}
!831 = !DIImportedEntity(tag: DW_TAG_imported_declaration, scope: !5, entity: !832, line: 158)
!832 = !DISubprogram(name: "getchar", scope: !638, file: !638, line: 256, type: !94, isLocal: false, isDefinition: false, flags: DIFlagPrototyped, isOptimized: false)
!833 = !DIImportedEntity(tag: DW_TAG_imported_declaration, scope: !5, entity: !834, line: 161)
!834 = !DISubprogram(name: "gets", scope: !638, file: !638, line: 257, type: !829, isLocal: false, isDefinition: false, flags: DIFlagPrototyped, isOptimized: false)
!835 = !DIImportedEntity(tag: DW_TAG_imported_declaration, scope: !5, entity: !836, line: 163)
!836 = !DISubprogram(name: "scanf", scope: !638, file: !638, line: 266, type: !837, isLocal: false, isDefinition: false, flags: DIFlagPrototyped, isOptimized: false)
!837 = !DISubroutineType(types: !838)
!838 = !{!25, !45, null}
!839 = !DIImportedEntity(tag: DW_TAG_imported_declaration, scope: !5, entity: !840, line: 164)
!840 = !DISubprogram(name: "vscanf", scope: !638, file: !638, line: 429, type: !841, isLocal: false, isDefinition: false, flags: DIFlagPrototyped, isOptimized: false)
!841 = !DISubroutineType(types: !842)
!842 = !{!25, !45, !729}
!843 = !DIImportedEntity(tag: DW_TAG_imported_declaration, scope: !5, entity: !844, line: 168)
!844 = !DISubprogram(name: "printf", scope: !638, file: !638, line: 259, type: !837, isLocal: false, isDefinition: false, flags: DIFlagPrototyped, isOptimized: false)
!845 = !DIImportedEntity(tag: DW_TAG_imported_declaration, scope: !5, entity: !846, line: 169)
!846 = !DISubprogram(name: "putchar", scope: !638, file: !638, line: 261, type: !847, isLocal: false, isDefinition: false, flags: DIFlagPrototyped, isOptimized: false)
!847 = !DISubroutineType(types: !848)
!848 = !{!25, !25}
!849 = !DIImportedEntity(tag: DW_TAG_imported_declaration, scope: !5, entity: !850, line: 170)
!850 = !DISubprogram(name: "puts", scope: !638, file: !638, line: 262, type: !50, isLocal: false, isDefinition: false, flags: DIFlagPrototyped, isOptimized: false)
!851 = !DIImportedEntity(tag: DW_TAG_imported_declaration, scope: !5, entity: !852, line: 171)
!852 = !DISubprogram(name: "vprintf", scope: !638, file: !638, line: 280, type: !841, isLocal: false, isDefinition: false, flags: DIFlagPrototyped, isOptimized: false)
!853 = !DIImportedEntity(tag: DW_TAG_imported_declaration, scope: !5, entity: !854, line: 104)
!854 = !DISubprogram(name: "isalnum", linkageName: "_Z7isalnumi", scope: !855, file: !855, line: 212, type: !847, isLocal: false, isDefinition: false, flags: DIFlagPrototyped, isOptimized: false)
!855 = !DIFile(filename: "/usr/include/ctype.h", directory: "/Users/hugh2/git-local/pub-prototyping/llvm/try_debug")
!856 = !DIImportedEntity(tag: DW_TAG_imported_declaration, scope: !5, entity: !857, line: 105)
!857 = !DISubprogram(name: "isalpha", linkageName: "_Z7isalphai", scope: !855, file: !855, line: 218, type: !847, isLocal: false, isDefinition: false, flags: DIFlagPrototyped, isOptimized: false)
!858 = !DIImportedEntity(tag: DW_TAG_imported_declaration, scope: !5, entity: !859, line: 106)
!859 = !DISubprogram(name: "isblank", linkageName: "_Z7isblanki", scope: !855, file: !855, line: 224, type: !847, isLocal: false, isDefinition: false, flags: DIFlagPrototyped, isOptimized: false)
!860 = !DIImportedEntity(tag: DW_TAG_imported_declaration, scope: !5, entity: !861, line: 107)
!861 = !DISubprogram(name: "iscntrl", linkageName: "_Z7iscntrli", scope: !855, file: !855, line: 230, type: !847, isLocal: false, isDefinition: false, flags: DIFlagPrototyped, isOptimized: false)
!862 = !DIImportedEntity(tag: DW_TAG_imported_declaration, scope: !5, entity: !863, line: 108)
!863 = !DISubprogram(name: "isdigit", linkageName: "_Z7isdigiti", scope: !855, file: !855, line: 237, type: !847, isLocal: false, isDefinition: false, flags: DIFlagPrototyped, isOptimized: false)
!864 = !DIImportedEntity(tag: DW_TAG_imported_declaration, scope: !5, entity: !865, line: 109)
!865 = !DISubprogram(name: "isgraph", linkageName: "_Z7isgraphi", scope: !855, file: !855, line: 243, type: !847, isLocal: false, isDefinition: false, flags: DIFlagPrototyped, isOptimized: false)
!866 = !DIImportedEntity(tag: DW_TAG_imported_declaration, scope: !5, entity: !867, line: 110)
!867 = !DISubprogram(name: "islower", linkageName: "_Z7isloweri", scope: !855, file: !855, line: 249, type: !847, isLocal: false, isDefinition: false, flags: DIFlagPrototyped, isOptimized: false)
!868 = !DIImportedEntity(tag: DW_TAG_imported_declaration, scope: !5, entity: !869, line: 111)
!869 = !DISubprogram(name: "isprint", linkageName: "_Z7isprinti", scope: !855, file: !855, line: 255, type: !847, isLocal: false, isDefinition: false, flags: DIFlagPrototyped, isOptimized: false)
!870 = !DIImportedEntity(tag: DW_TAG_imported_declaration, scope: !5, entity: !871, line: 112)
!871 = !DISubprogram(name: "ispunct", linkageName: "_Z7ispuncti", scope: !855, file: !855, line: 261, type: !847, isLocal: false, isDefinition: false, flags: DIFlagPrototyped, isOptimized: false)
!872 = !DIImportedEntity(tag: DW_TAG_imported_declaration, scope: !5, entity: !873, line: 113)
!873 = !DISubprogram(name: "isspace", linkageName: "_Z7isspacei", scope: !855, file: !855, line: 267, type: !847, isLocal: false, isDefinition: false, flags: DIFlagPrototyped, isOptimized: false)
!874 = !DIImportedEntity(tag: DW_TAG_imported_declaration, scope: !5, entity: !875, line: 114)
!875 = !DISubprogram(name: "isupper", linkageName: "_Z7isupperi", scope: !855, file: !855, line: 273, type: !847, isLocal: false, isDefinition: false, flags: DIFlagPrototyped, isOptimized: false)
!876 = !DIImportedEntity(tag: DW_TAG_imported_declaration, scope: !5, entity: !877, line: 115)
!877 = !DISubprogram(name: "isxdigit", linkageName: "_Z8isxdigiti", scope: !855, file: !855, line: 280, type: !847, isLocal: false, isDefinition: false, flags: DIFlagPrototyped, isOptimized: false)
!878 = !DIImportedEntity(tag: DW_TAG_imported_declaration, scope: !5, entity: !879, line: 116)
!879 = !DISubprogram(name: "tolower", linkageName: "_Z7toloweri", scope: !855, file: !855, line: 292, type: !847, isLocal: false, isDefinition: false, flags: DIFlagPrototyped, isOptimized: false)
!880 = !DIImportedEntity(tag: DW_TAG_imported_declaration, scope: !5, entity: !881, line: 117)
!881 = !DISubprogram(name: "toupper", linkageName: "_Z7toupperi", scope: !855, file: !855, line: 298, type: !847, isLocal: false, isDefinition: false, flags: DIFlagPrototyped, isOptimized: false)
!882 = !DIImportedEntity(tag: DW_TAG_imported_declaration, scope: !5, entity: !883, line: 63)
!883 = !DIDerivedType(tag: DW_TAG_typedef, name: "wint_t", file: !884, line: 31, baseType: !885)
!884 = !DIFile(filename: "/usr/include/sys/_types/_wint_t.h", directory: "/Users/hugh2/git-local/pub-prototyping/llvm/try_debug")
!885 = !DIDerivedType(tag: DW_TAG_typedef, name: "__darwin_wint_t", file: !555, line: 112, baseType: !25)
!886 = !DIImportedEntity(tag: DW_TAG_imported_declaration, scope: !5, entity: !887, line: 64)
!887 = !DIDerivedType(tag: DW_TAG_typedef, name: "wctrans_t", file: !888, line: 31, baseType: !889)
!888 = !DIFile(filename: "/usr/include/_types/_wctrans_t.h", directory: "/Users/hugh2/git-local/pub-prototyping/llvm/try_debug")
!889 = !DIDerivedType(tag: DW_TAG_typedef, name: "__darwin_wctrans_t", file: !890, line: 40, baseType: !25)
!890 = !DIFile(filename: "/usr/include/_types.h", directory: "/Users/hugh2/git-local/pub-prototyping/llvm/try_debug")
!891 = !DIImportedEntity(tag: DW_TAG_imported_declaration, scope: !5, entity: !892, line: 65)
!892 = !DIDerivedType(tag: DW_TAG_typedef, name: "wctype_t", file: !893, line: 31, baseType: !894)
!893 = !DIFile(filename: "/usr/include/_types/_wctype_t.h", directory: "/Users/hugh2/git-local/pub-prototyping/llvm/try_debug")
!894 = !DIDerivedType(tag: DW_TAG_typedef, name: "__darwin_wctype_t", file: !890, line: 42, baseType: !895)
!895 = !DIDerivedType(tag: DW_TAG_typedef, name: "__uint32_t", file: !555, line: 45, baseType: !100)
!896 = !DIImportedEntity(tag: DW_TAG_imported_declaration, scope: !5, entity: !897, line: 66)
!897 = !DISubprogram(name: "iswalnum", linkageName: "_Z8iswalnumi", scope: !898, file: !898, line: 66, type: !899, isLocal: false, isDefinition: false, flags: DIFlagPrototyped, isOptimized: false)
!898 = !DIFile(filename: "/usr/include/_wctype.h", directory: "/Users/hugh2/git-local/pub-prototyping/llvm/try_debug")
!899 = !DISubroutineType(types: !900)
!900 = !{!25, !883}
!901 = !DIImportedEntity(tag: DW_TAG_imported_declaration, scope: !5, entity: !902, line: 67)
!902 = !DISubprogram(name: "iswalpha", linkageName: "_Z8iswalphai", scope: !898, file: !898, line: 72, type: !899, isLocal: false, isDefinition: false, flags: DIFlagPrototyped, isOptimized: false)
!903 = !DIImportedEntity(tag: DW_TAG_imported_declaration, scope: !5, entity: !904, line: 68)
!904 = !DISubprogram(name: "iswblank", linkageName: "_Z8iswblanki", scope: !905, file: !905, line: 50, type: !899, isLocal: false, isDefinition: false, flags: DIFlagPrototyped, isOptimized: false)
!905 = !DIFile(filename: "/usr/include/wctype.h", directory: "/Users/hugh2/git-local/pub-prototyping/llvm/try_debug")
!906 = !DIImportedEntity(tag: DW_TAG_imported_declaration, scope: !5, entity: !907, line: 69)
!907 = !DISubprogram(name: "iswcntrl", linkageName: "_Z8iswcntrli", scope: !898, file: !898, line: 78, type: !899, isLocal: false, isDefinition: false, flags: DIFlagPrototyped, isOptimized: false)
!908 = !DIImportedEntity(tag: DW_TAG_imported_declaration, scope: !5, entity: !909, line: 70)
!909 = !DISubprogram(name: "iswdigit", linkageName: "_Z8iswdigiti", scope: !898, file: !898, line: 90, type: !899, isLocal: false, isDefinition: false, flags: DIFlagPrototyped, isOptimized: false)
!910 = !DIImportedEntity(tag: DW_TAG_imported_declaration, scope: !5, entity: !911, line: 71)
!911 = !DISubprogram(name: "iswgraph", linkageName: "_Z8iswgraphi", scope: !898, file: !898, line: 96, type: !899, isLocal: false, isDefinition: false, flags: DIFlagPrototyped, isOptimized: false)
!912 = !DIImportedEntity(tag: DW_TAG_imported_declaration, scope: !5, entity: !913, line: 72)
!913 = !DISubprogram(name: "iswlower", linkageName: "_Z8iswloweri", scope: !898, file: !898, line: 102, type: !899, isLocal: false, isDefinition: false, flags: DIFlagPrototyped, isOptimized: false)
!914 = !DIImportedEntity(tag: DW_TAG_imported_declaration, scope: !5, entity: !915, line: 73)
!915 = !DISubprogram(name: "iswprint", linkageName: "_Z8iswprinti", scope: !898, file: !898, line: 108, type: !899, isLocal: false, isDefinition: false, flags: DIFlagPrototyped, isOptimized: false)
!916 = !DIImportedEntity(tag: DW_TAG_imported_declaration, scope: !5, entity: !917, line: 74)
!917 = !DISubprogram(name: "iswpunct", linkageName: "_Z8iswpuncti", scope: !898, file: !898, line: 114, type: !899, isLocal: false, isDefinition: false, flags: DIFlagPrototyped, isOptimized: false)
!918 = !DIImportedEntity(tag: DW_TAG_imported_declaration, scope: !5, entity: !919, line: 75)
!919 = !DISubprogram(name: "iswspace", linkageName: "_Z8iswspacei", scope: !898, file: !898, line: 120, type: !899, isLocal: false, isDefinition: false, flags: DIFlagPrototyped, isOptimized: false)
!920 = !DIImportedEntity(tag: DW_TAG_imported_declaration, scope: !5, entity: !921, line: 76)
!921 = !DISubprogram(name: "iswupper", linkageName: "_Z8iswupperi", scope: !898, file: !898, line: 126, type: !899, isLocal: false, isDefinition: false, flags: DIFlagPrototyped, isOptimized: false)
!922 = !DIImportedEntity(tag: DW_TAG_imported_declaration, scope: !5, entity: !923, line: 77)
!923 = !DISubprogram(name: "iswxdigit", linkageName: "_Z9iswxdigiti", scope: !898, file: !898, line: 132, type: !899, isLocal: false, isDefinition: false, flags: DIFlagPrototyped, isOptimized: false)
!924 = !DIImportedEntity(tag: DW_TAG_imported_declaration, scope: !5, entity: !925, line: 78)
!925 = !DISubprogram(name: "iswctype", linkageName: "_Z8iswctypeij", scope: !898, file: !898, line: 84, type: !926, isLocal: false, isDefinition: false, flags: DIFlagPrototyped, isOptimized: false)
!926 = !DISubroutineType(types: !927)
!927 = !{!25, !883, !892}
!928 = !DIImportedEntity(tag: DW_TAG_imported_declaration, scope: !5, entity: !929, line: 79)
!929 = !DISubprogram(name: "wctype", scope: !898, file: !898, line: 172, type: !930, isLocal: false, isDefinition: false, flags: DIFlagPrototyped, isOptimized: false)
!930 = !DISubroutineType(types: !931)
!931 = !{!892, !45}
!932 = !DIImportedEntity(tag: DW_TAG_imported_declaration, scope: !5, entity: !933, line: 80)
!933 = !DISubprogram(name: "towlower", linkageName: "_Z8towloweri", scope: !898, file: !898, line: 138, type: !934, isLocal: false, isDefinition: false, flags: DIFlagPrototyped, isOptimized: false)
!934 = !DISubroutineType(types: !935)
!935 = !{!883, !883}
!936 = !DIImportedEntity(tag: DW_TAG_imported_declaration, scope: !5, entity: !937, line: 81)
!937 = !DISubprogram(name: "towupper", linkageName: "_Z8towupperi", scope: !898, file: !898, line: 144, type: !934, isLocal: false, isDefinition: false, flags: DIFlagPrototyped, isOptimized: false)
!938 = !DIImportedEntity(tag: DW_TAG_imported_declaration, scope: !5, entity: !939, line: 82)
!939 = !DISubprogram(name: "towctrans", scope: !905, file: !905, line: 121, type: !940, isLocal: false, isDefinition: false, flags: DIFlagPrototyped, isOptimized: false)
!940 = !DISubroutineType(types: !941)
!941 = !{!883, !883, !887}
!942 = !DIImportedEntity(tag: DW_TAG_imported_declaration, scope: !5, entity: !943, line: 83)
!943 = !DISubprogram(name: "wctrans", scope: !905, file: !905, line: 123, type: !944, isLocal: false, isDefinition: false, flags: DIFlagPrototyped, isOptimized: false)
!944 = !DISubroutineType(types: !945)
!945 = !{!887, !45}
!946 = !DIImportedEntity(tag: DW_TAG_imported_declaration, scope: !5, entity: !947, line: 116)
!947 = !DIDerivedType(tag: DW_TAG_typedef, name: "mbstate_t", file: !948, line: 31, baseType: !949)
!948 = !DIFile(filename: "/usr/include/sys/_types/_mbstate_t.h", directory: "/Users/hugh2/git-local/pub-prototyping/llvm/try_debug")
!949 = !DIDerivedType(tag: DW_TAG_typedef, name: "__darwin_mbstate_t", file: !555, line: 81, baseType: !950)
!950 = !DIDerivedType(tag: DW_TAG_typedef, name: "__mbstate_t", file: !555, line: 79, baseType: !951)
!951 = distinct !DICompositeType(tag: DW_TAG_union_type, file: !555, line: 76, size: 1024, elements: !952, identifier: "_ZTS11__mbstate_t")
!952 = !{!953, !957}
!953 = !DIDerivedType(tag: DW_TAG_member, name: "__mbstate8", scope: !951, file: !555, line: 77, baseType: !954, size: 1024)
!954 = !DICompositeType(tag: DW_TAG_array_type, baseType: !47, size: 1024, elements: !955)
!955 = !{!956}
!956 = !DISubrange(count: 128)
!957 = !DIDerivedType(tag: DW_TAG_member, name: "_mbstateL", scope: !951, file: !555, line: 78, baseType: !38, size: 64)
!958 = !DIImportedEntity(tag: DW_TAG_imported_declaration, scope: !5, entity: !12, line: 117)
!959 = !DIImportedEntity(tag: DW_TAG_imported_declaration, scope: !5, entity: !960, line: 118)
!960 = distinct !DICompositeType(tag: DW_TAG_structure_type, name: "tm", file: !961, line: 74, size: 448, elements: !962, identifier: "_ZTS2tm")
!961 = !DIFile(filename: "/usr/include/time.h", directory: "/Users/hugh2/git-local/pub-prototyping/llvm/try_debug")
!962 = !{!963, !964, !965, !966, !967, !968, !969, !970, !971, !972, !973}
!963 = !DIDerivedType(tag: DW_TAG_member, name: "tm_sec", scope: !960, file: !961, line: 75, baseType: !25, size: 32)
!964 = !DIDerivedType(tag: DW_TAG_member, name: "tm_min", scope: !960, file: !961, line: 76, baseType: !25, size: 32, offset: 32)
!965 = !DIDerivedType(tag: DW_TAG_member, name: "tm_hour", scope: !960, file: !961, line: 77, baseType: !25, size: 32, offset: 64)
!966 = !DIDerivedType(tag: DW_TAG_member, name: "tm_mday", scope: !960, file: !961, line: 78, baseType: !25, size: 32, offset: 96)
!967 = !DIDerivedType(tag: DW_TAG_member, name: "tm_mon", scope: !960, file: !961, line: 79, baseType: !25, size: 32, offset: 128)
!968 = !DIDerivedType(tag: DW_TAG_member, name: "tm_year", scope: !960, file: !961, line: 80, baseType: !25, size: 32, offset: 160)
!969 = !DIDerivedType(tag: DW_TAG_member, name: "tm_wday", scope: !960, file: !961, line: 81, baseType: !25, size: 32, offset: 192)
!970 = !DIDerivedType(tag: DW_TAG_member, name: "tm_yday", scope: !960, file: !961, line: 82, baseType: !25, size: 32, offset: 224)
!971 = !DIDerivedType(tag: DW_TAG_member, name: "tm_isdst", scope: !960, file: !961, line: 83, baseType: !25, size: 32, offset: 256)
!972 = !DIDerivedType(tag: DW_TAG_member, name: "tm_gmtoff", scope: !960, file: !961, line: 84, baseType: !10, size: 64, offset: 320)
!973 = !DIDerivedType(tag: DW_TAG_member, name: "tm_zone", scope: !960, file: !961, line: 85, baseType: !65, size: 64, offset: 384)
!974 = !DIImportedEntity(tag: DW_TAG_imported_declaration, scope: !5, entity: !883, line: 119)
!975 = !DIImportedEntity(tag: DW_TAG_imported_declaration, scope: !5, entity: !637, line: 120)
!976 = !DIImportedEntity(tag: DW_TAG_imported_declaration, scope: !5, entity: !977, line: 121)
!977 = !DISubprogram(name: "fwprintf", scope: !978, file: !978, line: 103, type: !979, isLocal: false, isDefinition: false, flags: DIFlagPrototyped, isOptimized: false)
!978 = !DIFile(filename: "/usr/include/wchar.h", directory: "/Users/hugh2/git-local/pub-prototyping/llvm/try_debug")
!979 = !DISubroutineType(types: !980)
!980 = !{!25, !696, !195, null}
!981 = !DIImportedEntity(tag: DW_TAG_imported_declaration, scope: !5, entity: !982, line: 122)
!982 = !DISubprogram(name: "fwscanf", scope: !978, file: !978, line: 104, type: !979, isLocal: false, isDefinition: false, flags: DIFlagPrototyped, isOptimized: false)
!983 = !DIImportedEntity(tag: DW_TAG_imported_declaration, scope: !5, entity: !984, line: 123)
!984 = !DISubprogram(name: "swprintf", scope: !978, file: !978, line: 115, type: !985, isLocal: false, isDefinition: false, flags: DIFlagPrototyped, isOptimized: false)
!985 = !DISubroutineType(types: !986)
!986 = !{!25, !181, !12, !195, null}
!987 = !DIImportedEntity(tag: DW_TAG_imported_declaration, scope: !5, entity: !988, line: 124)
!988 = !DISubprogram(name: "vfwprintf", scope: !978, file: !978, line: 118, type: !989, isLocal: false, isDefinition: false, flags: DIFlagPrototyped, isOptimized: false)
!989 = !DISubroutineType(types: !990)
!990 = !{!25, !696, !195, !729}
!991 = !DIImportedEntity(tag: DW_TAG_imported_declaration, scope: !5, entity: !992, line: 125)
!992 = !DISubprogram(name: "vswprintf", scope: !978, file: !978, line: 120, type: !993, isLocal: false, isDefinition: false, flags: DIFlagPrototyped, isOptimized: false)
!993 = !DISubroutineType(types: !994)
!994 = !{!25, !181, !12, !195, !729}
!995 = !DIImportedEntity(tag: DW_TAG_imported_declaration, scope: !5, entity: !996, line: 126)
!996 = !DISubprogram(name: "swscanf", scope: !978, file: !978, line: 116, type: !997, isLocal: false, isDefinition: false, flags: DIFlagPrototyped, isOptimized: false)
!997 = !DISubroutineType(types: !998)
!998 = !{!25, !195, !195, null}
!999 = !DIImportedEntity(tag: DW_TAG_imported_declaration, scope: !5, entity: !1000, line: 127)
!1000 = !DISubprogram(name: "vfwscanf", scope: !978, file: !978, line: 170, type: !989, isLocal: false, isDefinition: false, flags: DIFlagPrototyped, isOptimized: false)
!1001 = !DIImportedEntity(tag: DW_TAG_imported_declaration, scope: !5, entity: !1002, line: 128)
!1002 = !DISubprogram(name: "vswscanf", scope: !978, file: !978, line: 172, type: !1003, isLocal: false, isDefinition: false, flags: DIFlagPrototyped, isOptimized: false)
!1003 = !DISubroutineType(types: !1004)
!1004 = !{!25, !195, !195, !729}
!1005 = !DIImportedEntity(tag: DW_TAG_imported_declaration, scope: !5, entity: !1006, line: 129)
!1006 = !DISubprogram(name: "fgetwc", scope: !978, file: !978, line: 98, type: !1007, isLocal: false, isDefinition: false, flags: DIFlagPrototyped, isOptimized: false)
!1007 = !DISubroutineType(types: !1008)
!1008 = !{!883, !696}
!1009 = !DIImportedEntity(tag: DW_TAG_imported_declaration, scope: !5, entity: !1010, line: 130)
!1010 = !DISubprogram(name: "fgetws", scope: !978, file: !978, line: 99, type: !1011, isLocal: false, isDefinition: false, flags: DIFlagPrototyped, isOptimized: false)
!1011 = !DISubroutineType(types: !1012)
!1012 = !{!181, !181, !25, !696}
!1013 = !DIImportedEntity(tag: DW_TAG_imported_declaration, scope: !5, entity: !1014, line: 131)
!1014 = !DISubprogram(name: "fputwc", scope: !978, file: !978, line: 100, type: !1015, isLocal: false, isDefinition: false, flags: DIFlagPrototyped, isOptimized: false)
!1015 = !DISubroutineType(types: !1016)
!1016 = !{!883, !182, !696}
!1017 = !DIImportedEntity(tag: DW_TAG_imported_declaration, scope: !5, entity: !1018, line: 132)
!1018 = !DISubprogram(name: "fputws", scope: !978, file: !978, line: 101, type: !1019, isLocal: false, isDefinition: false, flags: DIFlagPrototyped, isOptimized: false)
!1019 = !DISubroutineType(types: !1020)
!1020 = !{!25, !195, !696}
!1021 = !DIImportedEntity(tag: DW_TAG_imported_declaration, scope: !5, entity: !1022, line: 133)
!1022 = !DISubprogram(name: "fwide", scope: !978, file: !978, line: 102, type: !1023, isLocal: false, isDefinition: false, flags: DIFlagPrototyped, isOptimized: false)
!1023 = !DISubroutineType(types: !1024)
!1024 = !{!25, !696, !25}
!1025 = !DIImportedEntity(tag: DW_TAG_imported_declaration, scope: !5, entity: !1026, line: 134)
!1026 = !DISubprogram(name: "getwc", scope: !978, file: !978, line: 105, type: !1007, isLocal: false, isDefinition: false, flags: DIFlagPrototyped, isOptimized: false)
!1027 = !DIImportedEntity(tag: DW_TAG_imported_declaration, scope: !5, entity: !1028, line: 135)
!1028 = !DISubprogram(name: "putwc", scope: !978, file: !978, line: 113, type: !1015, isLocal: false, isDefinition: false, flags: DIFlagPrototyped, isOptimized: false)
!1029 = !DIImportedEntity(tag: DW_TAG_imported_declaration, scope: !5, entity: !1030, line: 136)
!1030 = !DISubprogram(name: "ungetwc", scope: !978, file: !978, line: 117, type: !1031, isLocal: false, isDefinition: false, flags: DIFlagPrototyped, isOptimized: false)
!1031 = !DISubroutineType(types: !1032)
!1032 = !{!883, !883, !696}
!1033 = !DIImportedEntity(tag: DW_TAG_imported_declaration, scope: !5, entity: !1034, line: 137)
!1034 = !DISubprogram(name: "wcstod", scope: !978, file: !978, line: 144, type: !1035, isLocal: false, isDefinition: false, flags: DIFlagPrototyped, isOptimized: false)
!1035 = !DISubroutineType(types: !1036)
!1036 = !{!44, !195, !1037}
!1037 = !DIDerivedType(tag: DW_TAG_pointer_type, baseType: !181, size: 64)
!1038 = !DIImportedEntity(tag: DW_TAG_imported_declaration, scope: !5, entity: !1039, line: 138)
!1039 = !DISubprogram(name: "wcstof", scope: !978, file: !978, line: 175, type: !1040, isLocal: false, isDefinition: false, flags: DIFlagPrototyped, isOptimized: false)
!1040 = !DISubroutineType(types: !1041)
!1041 = !{!70, !195, !1037}
!1042 = !DIImportedEntity(tag: DW_TAG_imported_declaration, scope: !5, entity: !1043, line: 139)
!1043 = !DISubprogram(name: "wcstold", scope: !978, file: !978, line: 177, type: !1044, isLocal: false, isDefinition: false, flags: DIFlagPrototyped, isOptimized: false)
!1044 = !DISubroutineType(types: !1045)
!1045 = !{!17, !195, !1037}
!1046 = !DIImportedEntity(tag: DW_TAG_imported_declaration, scope: !5, entity: !1047, line: 140)
!1047 = !DISubprogram(name: "wcstol", scope: !978, file: !978, line: 147, type: !1048, isLocal: false, isDefinition: false, flags: DIFlagPrototyped, isOptimized: false)
!1048 = !DISubroutineType(types: !1049)
!1049 = !{!10, !195, !1037, !25}
!1050 = !DIImportedEntity(tag: DW_TAG_imported_declaration, scope: !5, entity: !1051, line: 142)
!1051 = !DISubprogram(name: "wcstoll", scope: !978, file: !978, line: 180, type: !1052, isLocal: false, isDefinition: false, flags: DIFlagPrototyped, isOptimized: false)
!1052 = !DISubroutineType(types: !1053)
!1053 = !{!38, !195, !1037, !25}
!1054 = !DIImportedEntity(tag: DW_TAG_imported_declaration, scope: !5, entity: !1055, line: 144)
!1055 = !DISubprogram(name: "wcstoul", scope: !978, file: !978, line: 149, type: !1056, isLocal: false, isDefinition: false, flags: DIFlagPrototyped, isOptimized: false)
!1056 = !DISubroutineType(types: !1057)
!1057 = !{!13, !195, !1037, !25}
!1058 = !DIImportedEntity(tag: DW_TAG_imported_declaration, scope: !5, entity: !1059, line: 146)
!1059 = !DISubprogram(name: "wcstoull", scope: !978, file: !978, line: 182, type: !1060, isLocal: false, isDefinition: false, flags: DIFlagPrototyped, isOptimized: false)
!1060 = !DISubroutineType(types: !1061)
!1061 = !{!91, !195, !1037, !25}
!1062 = !DIImportedEntity(tag: DW_TAG_imported_declaration, scope: !5, entity: !1063, line: 148)
!1063 = !DISubprogram(name: "wcscpy", scope: !978, file: !978, line: 128, type: !1064, isLocal: false, isDefinition: false, flags: DIFlagPrototyped, isOptimized: false)
!1064 = !DISubroutineType(types: !1065)
!1065 = !{!181, !181, !195}
!1066 = !DIImportedEntity(tag: DW_TAG_imported_declaration, scope: !5, entity: !1067, line: 149)
!1067 = !DISubprogram(name: "wcsncpy", scope: !978, file: !978, line: 135, type: !1068, isLocal: false, isDefinition: false, flags: DIFlagPrototyped, isOptimized: false)
!1068 = !DISubroutineType(types: !1069)
!1069 = !{!181, !181, !195, !12}
!1070 = !DIImportedEntity(tag: DW_TAG_imported_declaration, scope: !5, entity: !1071, line: 150)
!1071 = !DISubprogram(name: "wcscat", scope: !978, file: !978, line: 124, type: !1064, isLocal: false, isDefinition: false, flags: DIFlagPrototyped, isOptimized: false)
!1072 = !DIImportedEntity(tag: DW_TAG_imported_declaration, scope: !5, entity: !1073, line: 151)
!1073 = !DISubprogram(name: "wcsncat", scope: !978, file: !978, line: 133, type: !1068, isLocal: false, isDefinition: false, flags: DIFlagPrototyped, isOptimized: false)
!1074 = !DIImportedEntity(tag: DW_TAG_imported_declaration, scope: !5, entity: !1075, line: 152)
!1075 = !DISubprogram(name: "wcscmp", scope: !978, file: !978, line: 126, type: !1076, isLocal: false, isDefinition: false, flags: DIFlagPrototyped, isOptimized: false)
!1076 = !DISubroutineType(types: !1077)
!1077 = !{!25, !195, !195}
!1078 = !DIImportedEntity(tag: DW_TAG_imported_declaration, scope: !5, entity: !1079, line: 153)
!1079 = !DISubprogram(name: "wcscoll", scope: !978, file: !978, line: 127, type: !1076, isLocal: false, isDefinition: false, flags: DIFlagPrototyped, isOptimized: false)
!1080 = !DIImportedEntity(tag: DW_TAG_imported_declaration, scope: !5, entity: !1081, line: 154)
!1081 = !DISubprogram(name: "wcsncmp", scope: !978, file: !978, line: 134, type: !1082, isLocal: false, isDefinition: false, flags: DIFlagPrototyped, isOptimized: false)
!1082 = !DISubroutineType(types: !1083)
!1083 = !{!25, !195, !195, !12}
!1084 = !DIImportedEntity(tag: DW_TAG_imported_declaration, scope: !5, entity: !1085, line: 155)
!1085 = !DISubprogram(name: "wcsxfrm", scope: !978, file: !978, line: 142, type: !1086, isLocal: false, isDefinition: false, flags: DIFlagPrototyped, isOptimized: false)
!1086 = !DISubroutineType(types: !1087)
!1087 = !{!12, !181, !195, !12}
!1088 = !DIImportedEntity(tag: DW_TAG_imported_declaration, scope: !5, entity: !1089, line: 156)
!1089 = !DISubprogram(name: "wcschr", linkageName: "_Z6wcschrUa9enable_ifIXLb1EEEPww", scope: !1090, file: !1090, line: 137, type: !1091, isLocal: false, isDefinition: false, flags: DIFlagPrototyped, isOptimized: false)
!1090 = !DIFile(filename: "/usr/local/opt/llvm-4.0/bin/../include/c++/v1/wchar.h", directory: "/Users/hugh2/git-local/pub-prototyping/llvm/try_debug")
!1091 = !DISubroutineType(types: !1092)
!1092 = !{!181, !181, !182}
!1093 = !DIImportedEntity(tag: DW_TAG_imported_declaration, scope: !5, entity: !1094, line: 157)
!1094 = !DISubprogram(name: "wcspbrk", linkageName: "_Z7wcspbrkUa9enable_ifIXLb1EEEPwPKw", scope: !1090, file: !1090, line: 144, type: !1064, isLocal: false, isDefinition: false, flags: DIFlagPrototyped, isOptimized: false)
!1095 = !DIImportedEntity(tag: DW_TAG_imported_declaration, scope: !5, entity: !1096, line: 158)
!1096 = !DISubprogram(name: "wcsrchr", linkageName: "_Z7wcsrchrUa9enable_ifIXLb1EEEPww", scope: !1090, file: !1090, line: 151, type: !1091, isLocal: false, isDefinition: false, flags: DIFlagPrototyped, isOptimized: false)
!1097 = !DIImportedEntity(tag: DW_TAG_imported_declaration, scope: !5, entity: !1098, line: 159)
!1098 = !DISubprogram(name: "wcsstr", linkageName: "_Z6wcsstrUa9enable_ifIXLb1EEEPwPKw", scope: !1090, file: !1090, line: 158, type: !1064, isLocal: false, isDefinition: false, flags: DIFlagPrototyped, isOptimized: false)
!1099 = !DIImportedEntity(tag: DW_TAG_imported_declaration, scope: !5, entity: !1100, line: 160)
!1100 = !DISubprogram(name: "wmemchr", linkageName: "_Z7wmemchrUa9enable_ifIXLb1EEEPwwm", scope: !1090, file: !1090, line: 165, type: !1101, isLocal: false, isDefinition: false, flags: DIFlagPrototyped, isOptimized: false)
!1101 = !DISubroutineType(types: !1102)
!1102 = !{!181, !181, !182, !12}
!1103 = !DIImportedEntity(tag: DW_TAG_imported_declaration, scope: !5, entity: !1104, line: 161)
!1104 = !DISubprogram(name: "wcscspn", scope: !978, file: !978, line: 129, type: !1105, isLocal: false, isDefinition: false, flags: DIFlagPrototyped, isOptimized: false)
!1105 = !DISubroutineType(types: !1106)
!1106 = !{!12, !195, !195}
!1107 = !DIImportedEntity(tag: DW_TAG_imported_declaration, scope: !5, entity: !1108, line: 162)
!1108 = !DISubprogram(name: "wcslen", scope: !978, file: !978, line: 132, type: !1109, isLocal: false, isDefinition: false, flags: DIFlagPrototyped, isOptimized: false)
!1109 = !DISubroutineType(types: !1110)
!1110 = !{!12, !195}
!1111 = !DIImportedEntity(tag: DW_TAG_imported_declaration, scope: !5, entity: !1112, line: 163)
!1112 = !DISubprogram(name: "wcsspn", scope: !978, file: !978, line: 140, type: !1105, isLocal: false, isDefinition: false, flags: DIFlagPrototyped, isOptimized: false)
!1113 = !DIImportedEntity(tag: DW_TAG_imported_declaration, scope: !5, entity: !1114, line: 164)
!1114 = !DISubprogram(name: "wcstok", scope: !978, file: !978, line: 145, type: !1115, isLocal: false, isDefinition: false, flags: DIFlagPrototyped, isOptimized: false)
!1115 = !DISubroutineType(types: !1116)
!1116 = !{!181, !181, !195, !1037}
!1117 = !DIImportedEntity(tag: DW_TAG_imported_declaration, scope: !5, entity: !1118, line: 165)
!1118 = !DISubprogram(name: "wmemcmp", scope: !978, file: !978, line: 151, type: !1082, isLocal: false, isDefinition: false, flags: DIFlagPrototyped, isOptimized: false)
!1119 = !DIImportedEntity(tag: DW_TAG_imported_declaration, scope: !5, entity: !1120, line: 166)
!1120 = !DISubprogram(name: "wmemcpy", scope: !978, file: !978, line: 152, type: !1068, isLocal: false, isDefinition: false, flags: DIFlagPrototyped, isOptimized: false)
!1121 = !DIImportedEntity(tag: DW_TAG_imported_declaration, scope: !5, entity: !1122, line: 167)
!1122 = !DISubprogram(name: "wmemmove", scope: !978, file: !978, line: 153, type: !1068, isLocal: false, isDefinition: false, flags: DIFlagPrototyped, isOptimized: false)
!1123 = !DIImportedEntity(tag: DW_TAG_imported_declaration, scope: !5, entity: !1124, line: 168)
!1124 = !DISubprogram(name: "wmemset", scope: !978, file: !978, line: 154, type: !1101, isLocal: false, isDefinition: false, flags: DIFlagPrototyped, isOptimized: false)
!1125 = !DIImportedEntity(tag: DW_TAG_imported_declaration, scope: !5, entity: !1126, line: 169)
!1126 = !DISubprogram(name: "wcsftime", linkageName: "\01_wcsftime", scope: !978, file: !978, line: 130, type: !1127, isLocal: false, isDefinition: false, flags: DIFlagPrototyped, isOptimized: false)
!1127 = !DISubroutineType(types: !1128)
!1128 = !{!12, !181, !12, !195, !1129}
!1129 = !DIDerivedType(tag: DW_TAG_pointer_type, baseType: !1130, size: 64)
!1130 = !DIDerivedType(tag: DW_TAG_const_type, baseType: !960)
!1131 = !DIImportedEntity(tag: DW_TAG_imported_declaration, scope: !5, entity: !1132, line: 170)
!1132 = !DISubprogram(name: "btowc", scope: !978, file: !978, line: 97, type: !1133, isLocal: false, isDefinition: false, flags: DIFlagPrototyped, isOptimized: false)
!1133 = !DISubroutineType(types: !1134)
!1134 = !{!883, !25}
!1135 = !DIImportedEntity(tag: DW_TAG_imported_declaration, scope: !5, entity: !1136, line: 171)
!1136 = !DISubprogram(name: "wctob", scope: !978, file: !978, line: 143, type: !899, isLocal: false, isDefinition: false, flags: DIFlagPrototyped, isOptimized: false)
!1137 = !DIImportedEntity(tag: DW_TAG_imported_declaration, scope: !5, entity: !1138, line: 172)
!1138 = !DISubprogram(name: "mbsinit", scope: !978, file: !978, line: 110, type: !1139, isLocal: false, isDefinition: false, flags: DIFlagPrototyped, isOptimized: false)
!1139 = !DISubroutineType(types: !1140)
!1140 = !{!25, !1141}
!1141 = !DIDerivedType(tag: DW_TAG_pointer_type, baseType: !1142, size: 64)
!1142 = !DIDerivedType(tag: DW_TAG_const_type, baseType: !947)
!1143 = !DIImportedEntity(tag: DW_TAG_imported_declaration, scope: !5, entity: !1144, line: 173)
!1144 = !DISubprogram(name: "mbrlen", scope: !978, file: !978, line: 107, type: !1145, isLocal: false, isDefinition: false, flags: DIFlagPrototyped, isOptimized: false)
!1145 = !DISubroutineType(types: !1146)
!1146 = !{!12, !45, !12, !1147}
!1147 = !DIDerivedType(tag: DW_TAG_pointer_type, baseType: !947, size: 64)
!1148 = !DIImportedEntity(tag: DW_TAG_imported_declaration, scope: !5, entity: !1149, line: 174)
!1149 = !DISubprogram(name: "mbrtowc", scope: !978, file: !978, line: 108, type: !1150, isLocal: false, isDefinition: false, flags: DIFlagPrototyped, isOptimized: false)
!1150 = !DISubroutineType(types: !1151)
!1151 = !{!12, !181, !45, !12, !1147}
!1152 = !DIImportedEntity(tag: DW_TAG_imported_declaration, scope: !5, entity: !1153, line: 175)
!1153 = !DISubprogram(name: "wcrtomb", scope: !978, file: !978, line: 123, type: !1154, isLocal: false, isDefinition: false, flags: DIFlagPrototyped, isOptimized: false)
!1154 = !DISubroutineType(types: !1155)
!1155 = !{!12, !65, !182, !1147}
!1156 = !DIImportedEntity(tag: DW_TAG_imported_declaration, scope: !5, entity: !1157, line: 176)
!1157 = !DISubprogram(name: "mbsrtowcs", scope: !978, file: !978, line: 111, type: !1158, isLocal: false, isDefinition: false, flags: DIFlagPrototyped, isOptimized: false)
!1158 = !DISubroutineType(types: !1159)
!1159 = !{!12, !181, !1160, !12, !1147}
!1160 = !DIDerivedType(tag: DW_TAG_pointer_type, baseType: !45, size: 64)
!1161 = !DIImportedEntity(tag: DW_TAG_imported_declaration, scope: !5, entity: !1162, line: 177)
!1162 = !DISubprogram(name: "wcsrtombs", scope: !978, file: !978, line: 138, type: !1163, isLocal: false, isDefinition: false, flags: DIFlagPrototyped, isOptimized: false)
!1163 = !DISubroutineType(types: !1164)
!1164 = !{!12, !65, !1165, !12, !1147}
!1165 = !DIDerivedType(tag: DW_TAG_pointer_type, baseType: !195, size: 64)
!1166 = !DIImportedEntity(tag: DW_TAG_imported_declaration, scope: !5, entity: !1167, line: 180)
!1167 = !DISubprogram(name: "getwchar", scope: !978, file: !978, line: 106, type: !1168, isLocal: false, isDefinition: false, flags: DIFlagPrototyped, isOptimized: false)
!1168 = !DISubroutineType(types: !1169)
!1169 = !{!883}
!1170 = !DIImportedEntity(tag: DW_TAG_imported_declaration, scope: !5, entity: !1171, line: 181)
!1171 = !DISubprogram(name: "vwscanf", scope: !978, file: !978, line: 174, type: !1172, isLocal: false, isDefinition: false, flags: DIFlagPrototyped, isOptimized: false)
!1172 = !DISubroutineType(types: !1173)
!1173 = !{!25, !195, !729}
!1174 = !DIImportedEntity(tag: DW_TAG_imported_declaration, scope: !5, entity: !1175, line: 182)
!1175 = !DISubprogram(name: "wscanf", scope: !978, file: !978, line: 156, type: !1176, isLocal: false, isDefinition: false, flags: DIFlagPrototyped, isOptimized: false)
!1176 = !DISubroutineType(types: !1177)
!1177 = !{!25, !195, null}
!1178 = !DIImportedEntity(tag: DW_TAG_imported_declaration, scope: !5, entity: !1179, line: 186)
!1179 = !DISubprogram(name: "putwchar", scope: !978, file: !978, line: 114, type: !1180, isLocal: false, isDefinition: false, flags: DIFlagPrototyped, isOptimized: false)
!1180 = !DISubroutineType(types: !1181)
!1181 = !{!883, !182}
!1182 = !DIImportedEntity(tag: DW_TAG_imported_declaration, scope: !5, entity: !1183, line: 187)
!1183 = !DISubprogram(name: "vwprintf", scope: !978, file: !978, line: 122, type: !1172, isLocal: false, isDefinition: false, flags: DIFlagPrototyped, isOptimized: false)
!1184 = !DIImportedEntity(tag: DW_TAG_imported_declaration, scope: !5, entity: !1185, line: 188)
!1185 = !DISubprogram(name: "wprintf", scope: !978, file: !978, line: 155, type: !1176, isLocal: false, isDefinition: false, flags: DIFlagPrototyped, isOptimized: false)
!1186 = !DIImportedEntity(tag: DW_TAG_imported_declaration, scope: !5, entity: !1187, line: 56)
!1187 = !DIDerivedType(tag: DW_TAG_typedef, name: "clock_t", file: !1188, line: 30, baseType: !1189)
!1188 = !DIFile(filename: "/usr/include/sys/_types/_clock_t.h", directory: "/Users/hugh2/git-local/pub-prototyping/llvm/try_debug")
!1189 = !DIDerivedType(tag: DW_TAG_typedef, name: "__darwin_clock_t", file: !555, line: 117, baseType: !13)
!1190 = !DIImportedEntity(tag: DW_TAG_imported_declaration, scope: !5, entity: !12, line: 57)
!1191 = !DIImportedEntity(tag: DW_TAG_imported_declaration, scope: !5, entity: !1192, line: 58)
!1192 = !DIDerivedType(tag: DW_TAG_typedef, name: "time_t", file: !1193, line: 30, baseType: !1194)
!1193 = !DIFile(filename: "/usr/include/sys/_types/_time_t.h", directory: "/Users/hugh2/git-local/pub-prototyping/llvm/try_debug")
!1194 = !DIDerivedType(tag: DW_TAG_typedef, name: "__darwin_time_t", file: !555, line: 120, baseType: !10)
!1195 = !DIImportedEntity(tag: DW_TAG_imported_declaration, scope: !5, entity: !960, line: 59)
!1196 = !DIImportedEntity(tag: DW_TAG_imported_declaration, scope: !5, entity: !1197, line: 60)
!1197 = !DISubprogram(name: "clock", linkageName: "\01_clock", scope: !961, file: !961, line: 108, type: !1198, isLocal: false, isDefinition: false, flags: DIFlagPrototyped, isOptimized: false)
!1198 = !DISubroutineType(types: !1199)
!1199 = !{!1187}
!1200 = !DIImportedEntity(tag: DW_TAG_imported_declaration, scope: !5, entity: !1201, line: 61)
!1201 = !DISubprogram(name: "difftime", scope: !961, file: !961, line: 110, type: !1202, isLocal: false, isDefinition: false, flags: DIFlagPrototyped, isOptimized: false)
!1202 = !DISubroutineType(types: !1203)
!1203 = !{!44, !1192, !1192}
!1204 = !DIImportedEntity(tag: DW_TAG_imported_declaration, scope: !5, entity: !1205, line: 62)
!1205 = !DISubprogram(name: "mktime", linkageName: "\01_mktime", scope: !961, file: !961, line: 114, type: !1206, isLocal: false, isDefinition: false, flags: DIFlagPrototyped, isOptimized: false)
!1206 = !DISubroutineType(types: !1207)
!1207 = !{!1192, !1208}
!1208 = !DIDerivedType(tag: DW_TAG_pointer_type, baseType: !960, size: 64)
!1209 = !DIImportedEntity(tag: DW_TAG_imported_declaration, scope: !5, entity: !1210, line: 63)
!1210 = !DISubprogram(name: "time", scope: !961, file: !961, line: 117, type: !1211, isLocal: false, isDefinition: false, flags: DIFlagPrototyped, isOptimized: false)
!1211 = !DISubroutineType(types: !1212)
!1212 = !{!1192, !1213}
!1213 = !DIDerivedType(tag: DW_TAG_pointer_type, baseType: !1192, size: 64)
!1214 = !DIImportedEntity(tag: DW_TAG_imported_declaration, scope: !5, entity: !1215, line: 65)
!1215 = !DISubprogram(name: "asctime", scope: !961, file: !961, line: 107, type: !1216, isLocal: false, isDefinition: false, flags: DIFlagPrototyped, isOptimized: false)
!1216 = !DISubroutineType(types: !1217)
!1217 = !{!65, !1129}
!1218 = !DIImportedEntity(tag: DW_TAG_imported_declaration, scope: !5, entity: !1219, line: 66)
!1219 = !DISubprogram(name: "ctime", scope: !961, file: !961, line: 109, type: !1220, isLocal: false, isDefinition: false, flags: DIFlagPrototyped, isOptimized: false)
!1220 = !DISubroutineType(types: !1221)
!1221 = !{!65, !1222}
!1222 = !DIDerivedType(tag: DW_TAG_pointer_type, baseType: !1223, size: 64)
!1223 = !DIDerivedType(tag: DW_TAG_const_type, baseType: !1192)
!1224 = !DIImportedEntity(tag: DW_TAG_imported_declaration, scope: !5, entity: !1225, line: 67)
!1225 = !DISubprogram(name: "gmtime", scope: !961, file: !961, line: 112, type: !1226, isLocal: false, isDefinition: false, flags: DIFlagPrototyped, isOptimized: false)
!1226 = !DISubroutineType(types: !1227)
!1227 = !{!1208, !1222}
!1228 = !DIImportedEntity(tag: DW_TAG_imported_declaration, scope: !5, entity: !1229, line: 68)
!1229 = !DISubprogram(name: "localtime", scope: !961, file: !961, line: 113, type: !1226, isLocal: false, isDefinition: false, flags: DIFlagPrototyped, isOptimized: false)
!1230 = !DIImportedEntity(tag: DW_TAG_imported_declaration, scope: !5, entity: !1231, line: 70)
!1231 = !DISubprogram(name: "strftime", linkageName: "\01_strftime", scope: !961, file: !961, line: 115, type: !1232, isLocal: false, isDefinition: false, flags: DIFlagPrototyped, isOptimized: false)
!1232 = !DISubroutineType(types: !1233)
!1233 = !{!12, !65, !12, !45, !1129}
!1234 = !DIImportedEntity(tag: DW_TAG_imported_declaration, scope: !0, entity: !1235, line: 52)
!1235 = !DIDerivedType(tag: DW_TAG_typedef, name: "nullptr_t", scope: !7, file: !1236, line: 57, baseType: !1237)
!1236 = !DIFile(filename: "/usr/local/opt/llvm-4.0/bin/../include/c++/v1/__nullptr", directory: "/Users/hugh2/git-local/pub-prototyping/llvm/try_debug")
!1237 = !DIBasicType(tag: DW_TAG_unspecified_type, name: "decltype(nullptr)")
!1238 = !{i32 2, !"Dwarf Version", i32 4}
!1239 = !{i32 2, !"Debug Info Version", i32 3}
!1240 = !{i32 1, !"PIC Level", i32 2}
!1241 = !{!"clang version 4.0.0 (tags/RELEASE_400/final)"}
!1242 = distinct !DISubprogram(name: "crash", linkageName: "_Z5crashii", scope: !1, file: !1, line: 6, type: !1243, isLocal: false, isDefinition: true, scopeLine: 6, flags: DIFlagPrototyped, isOptimized: false, unit: !0, variables: !2)
!1243 = !DISubroutineType(types: !1244)
!1244 = !{!25, !25, !25}
!1245 = !DILocalVariable(name: "b", arg: 1, scope: !1242, file: !1, line: 6, type: !25)
!1246 = !DIExpression()
!1247 = !DILocation(line: 6, column: 15, scope: !1242)
!1248 = !DILocalVariable(name: "a", arg: 2, scope: !1242, file: !1, line: 6, type: !25)
!1249 = !DILocation(line: 6, column: 22, scope: !1242)
!1250 = !DILocation(line: 7, column: 12, scope: !1242)
!1251 = !DILocation(line: 7, column: 16, scope: !1242)
!1252 = !DILocation(line: 7, column: 14, scope: !1242)
!1253 = !DILocation(line: 7, column: 5, scope: !1242)
!1254 = distinct !DISubprogram(name: "main", scope: !1, file: !1, line: 10, type: !1255, isLocal: false, isDefinition: true, scopeLine: 10, flags: DIFlagPrototyped, isOptimized: false, unit: !0, variables: !2)
!1255 = !DISubroutineType(types: !1256)
!1256 = !{!25, !25, !64}
!1257 = !DILocalVariable(name: "argc", arg: 1, scope: !1254, file: !1, line: 10, type: !25)
!1258 = !DILocation(line: 10, column: 14, scope: !1254)
!1259 = !DILocalVariable(name: "argv", arg: 2, scope: !1254, file: !1, line: 10, type: !64)
!1260 = !DILocation(line: 10, column: 26, scope: !1254)
!1261 = !DILocation(line: 11, column: 5, scope: !1254)
!1262 = !DILocation(line: 12, column: 1, scope: !1254)
